
finalproject.elf:     file format elf32-littlenios2
finalproject.elf
architecture: nios2, flags 0x00000112:
EXEC_P, HAS_SYMS, D_PAGED
start address 0x030401b4

Program Header:
    LOAD off    0x00001000 vaddr 0x03040000 paddr 0x03040000 align 2**12
         filesz 0x00000020 memsz 0x00000020 flags r-x
    LOAD off    0x00001020 vaddr 0x03040020 paddr 0x03040020 align 2**12
         filesz 0x0000b470 memsz 0x0000b470 flags r-x
    LOAD off    0x0000c490 vaddr 0x0304b490 paddr 0x0304cdcc align 2**12
         filesz 0x0000193c memsz 0x0000193c flags rw-
    LOAD off    0x0000e708 vaddr 0x0304e708 paddr 0x0304e708 align 2**12
         filesz 0x00000000 memsz 0x000002cc flags rw-

Sections:
Idx Name          Size      VMA       LMA       File off  Algn
  0 .entry        00000020  03040000  03040000  00001000  2**5
                  CONTENTS, ALLOC, LOAD, READONLY, CODE
  1 .exceptions   00000194  03040020  03040020  00001020  2**2
                  CONTENTS, ALLOC, LOAD, READONLY, CODE
  2 .text         0000af80  030401b4  030401b4  000011b4  2**2
                  CONTENTS, ALLOC, LOAD, READONLY, CODE
  3 .rodata       0000035c  0304b134  0304b134  0000c134  2**2
                  CONTENTS, ALLOC, LOAD, READONLY, DATA
  4 .rwdata       0000193c  0304b490  0304cdcc  0000c490  2**2
                  CONTENTS, ALLOC, LOAD, DATA, SMALL_DATA
  5 .bss          000002cc  0304e708  0304e708  0000e708  2**2
                  ALLOC, SMALL_DATA
  6 .comment      00000026  00000000  00000000  0000ddcc  2**0
                  CONTENTS, READONLY
  7 .debug_aranges 00000878  00000000  00000000  0000ddf8  2**3
                  CONTENTS, READONLY, DEBUGGING
  8 .debug_pubnames 000010f6  00000000  00000000  0000e670  2**0
                  CONTENTS, READONLY, DEBUGGING
  9 .debug_info   00011d9c  00000000  00000000  0000f766  2**0
                  CONTENTS, READONLY, DEBUGGING
 10 .debug_abbrev 00003d9c  00000000  00000000  00021502  2**0
                  CONTENTS, READONLY, DEBUGGING
 11 .debug_line   0000cfd5  00000000  00000000  0002529e  2**0
                  CONTENTS, READONLY, DEBUGGING
 12 .debug_frame  0000135c  00000000  00000000  00032274  2**2
                  CONTENTS, READONLY, DEBUGGING
 13 .debug_str    00001104  00000000  00000000  000335d0  2**0
                  CONTENTS, READONLY, DEBUGGING
 14 .debug_loc    00001ddf  00000000  00000000  000346d4  2**0
                  CONTENTS, READONLY, DEBUGGING
 15 .debug_alt_sim_info 00000060  00000000  00000000  000364b4  2**2
                  CONTENTS, READONLY, DEBUGGING
 16 .debug_ranges 00000090  00000000  00000000  00036518  2**3
                  CONTENTS, READONLY, DEBUGGING
 17 .thread_model 00000003  00000000  00000000  00039263  2**0
                  CONTENTS, READONLY
 18 .cpu          00000003  00000000  00000000  00039266  2**0
                  CONTENTS, READONLY
 19 .simulation_enabled 00000001  00000000  00000000  00039269  2**0
                  CONTENTS, READONLY
 20 .sysid_hash   00000004  00000000  00000000  0003926a  2**0
                  CONTENTS, READONLY
 21 .sysid_base   00000004  00000000  00000000  0003926e  2**0
                  CONTENTS, READONLY
 22 .sysid_time   00000004  00000000  00000000  00039272  2**0
                  CONTENTS, READONLY
 23 .stderr_dev   00000009  00000000  00000000  00039276  2**0
                  CONTENTS, READONLY
 24 .stdin_dev    00000009  00000000  00000000  0003927f  2**0
                  CONTENTS, READONLY
 25 .stdout_dev   00000009  00000000  00000000  00039288  2**0
                  CONTENTS, READONLY
 26 .sopc_system_name 0000000c  00000000  00000000  00039291  2**0
                  CONTENTS, READONLY
 27 .quartus_project_dir 00000014  00000000  00000000  0003929d  2**0
                  CONTENTS, READONLY
 28 .jdi          00004447  00000000  00000000  000392b1  2**0
                  CONTENTS, READONLY
 29 .sopcinfo     000b7fc5  00000000  00000000  0003d6f8  2**0
                  CONTENTS, READONLY
SYMBOL TABLE:
03040000 l    d  .entry	00000000 .entry
03040020 l    d  .exceptions	00000000 .exceptions
030401b4 l    d  .text	00000000 .text
0304b134 l    d  .rodata	00000000 .rodata
0304b490 l    d  .rwdata	00000000 .rwdata
0304e708 l    d  .bss	00000000 .bss
00000000 l    d  .comment	00000000 .comment
00000000 l    d  .debug_aranges	00000000 .debug_aranges
00000000 l    d  .debug_pubnames	00000000 .debug_pubnames
00000000 l    d  .debug_info	00000000 .debug_info
00000000 l    d  .debug_abbrev	00000000 .debug_abbrev
00000000 l    d  .debug_line	00000000 .debug_line
00000000 l    d  .debug_frame	00000000 .debug_frame
00000000 l    d  .debug_str	00000000 .debug_str
00000000 l    d  .debug_loc	00000000 .debug_loc
00000000 l    d  .debug_alt_sim_info	00000000 .debug_alt_sim_info
00000000 l    d  .debug_ranges	00000000 .debug_ranges
030401fc l       .text	00000000 alt_after_alt_main
00000000 l    df *ABS*	00000000 alt_irq_handler.c
00000000 l    df *ABS*	00000000 LCD.c
00000000 l    df *ABS*	00000000 SD_wav_player.c
0304b154 l     O .rodata	00000024 C.0.3061
00000000 l    df *ABS*	00000000 file_list.c
00000000 l    df *ABS*	00000000 find_cluster.c
00000000 l    df *ABS*	00000000 read_lyrics.c
00000000 l    df *ABS*	00000000 sd_card.c
00000000 l    df *ABS*	00000000 show_name.c
00000000 l    df *ABS*	00000000 time.c
00000000 l    df *ABS*	00000000 lib2-divmod.c
03044824 l     F .text	0000007c udivmodsi4
00000000 l    df *ABS*	00000000 memcpy.c
00000000 l    df *ABS*	00000000 memset.c
00000000 l    df *ABS*	00000000 strcmp.c
00000000 l    df *ABS*	00000000 strlen.c
00000000 l    df *ABS*	00000000 strlwr.c
00000000 l    df *ABS*	00000000 ctype_.c
0304b2b5 l     O .rodata	00000180 _ctype_b
00000000 l    df *ABS*	00000000 alt_load.c
03044ca0 l     F .text	0000006c alt_load_section
00000000 l    df *ABS*	00000000 alt_main.c
00000000 l    df *ABS*	00000000 alt_usleep.c
00000000 l    df *ABS*	00000000 alt_sys_init.c
0304b490 l     O .rwdata	000000d8 cfi_flash
0304b568 l     O .rwdata	00001060 jtag_uart
0304c5c8 l     O .rwdata	00000120 lcd
0304c6e8 l     O .rwdata	000000c4 rs232
03044e78 l     F .text	00000038 alt_dev_reg
00000000 l    df *ABS*	00000000 altera_avalon_cfi_flash.c
03044f4c l     F .text	00000038 alt_flash_device_register
00000000 l    df *ABS*	00000000 altera_avalon_cfi_flash_table.c
03045d3c l     F .text	0000007c alt_read_16bit_query_entry
00000000 l    df *ABS*	00000000 altera_avalon_jtag_uart_fd.c
00000000 l    df *ABS*	00000000 altera_avalon_jtag_uart_init.c
03046e28 l     F .text	00000228 altera_avalon_jtag_uart_irq
03047050 l     F .text	000000b0 altera_avalon_jtag_uart_timeout
00000000 l    df *ABS*	00000000 altera_avalon_jtag_uart_ioctl.c
00000000 l    df *ABS*	00000000 altera_avalon_jtag_uart_read.c
00000000 l    df *ABS*	00000000 altera_avalon_jtag_uart_write.c
00000000 l    df *ABS*	00000000 altera_avalon_lcd_16207.c
0304cd94 l     O .rwdata	00000004 colstart
030476cc l     F .text	000000b8 lcd_write_command
03047784 l     F .text	000000d4 lcd_write_data
03047858 l     F .text	000000c4 lcd_clear_screen
0304791c l     F .text	000001ec lcd_repaint_screen
03047b08 l     F .text	000000c8 lcd_scroll_up
03047bd0 l     F .text	000002d0 lcd_handle_escape
030483ac l     F .text	000000cc alt_lcd_16207_timeout
00000000 l    df *ABS*	00000000 altera_avalon_lcd_16207_fd.c
00000000 l    df *ABS*	00000000 altera_avalon_timer_sc.c
0304860c l     F .text	00000070 alt_avalon_timer_sc_irq
00000000 l    df *ABS*	00000000 altera_avalon_uart_fd.c
00000000 l    df *ABS*	00000000 altera_avalon_uart_init.c
030488cc l     F .text	0000009c altera_avalon_uart_irq
03048968 l     F .text	000000e0 altera_avalon_uart_rxirq
03048a48 l     F .text	0000015c altera_avalon_uart_txirq
00000000 l    df *ABS*	00000000 altera_avalon_uart_read.c
03048e34 l     F .text	00000060 alt_get_errno
00000000 l    df *ABS*	00000000 altera_avalon_uart_write.c
0304905c l     F .text	00000060 alt_get_errno
00000000 l    df *ABS*	00000000 alt_alarm_start.c
00000000 l    df *ABS*	00000000 alt_busy_sleep.c
00000000 l    df *ABS*	00000000 alt_close.c
03049458 l     F .text	00000060 alt_get_errno
00000000 l    df *ABS*	00000000 alt_dcache_flush.c
00000000 l    df *ABS*	00000000 alt_dcache_flush_all.c
00000000 l    df *ABS*	00000000 alt_dev.c
03049574 l     F .text	0000002c alt_dev_null_write
00000000 l    df *ABS*	00000000 alt_dev_llist_insert.c
03049654 l     F .text	00000060 alt_get_errno
00000000 l    df *ABS*	00000000 alt_do_ctors.c
00000000 l    df *ABS*	00000000 alt_do_dtors.c
00000000 l    df *ABS*	00000000 alt_errno.c
00000000 l    df *ABS*	00000000 alt_flash_dev.c
00000000 l    df *ABS*	00000000 alt_icache_flush_all.c
00000000 l    df *ABS*	00000000 alt_iic.c
00000000 l    df *ABS*	00000000 alt_iic_isr_register.c
00000000 l    df *ABS*	00000000 alt_io_redirect.c
03049b48 l     F .text	000000c4 alt_open_fd
00000000 l    df *ABS*	00000000 alt_irq_vars.c
00000000 l    df *ABS*	00000000 alt_open.c
03049c84 l     F .text	000000dc alt_file_locked
03049ee8 l     F .text	00000060 alt_get_errno
00000000 l    df *ABS*	00000000 alt_release_fd.c
00000000 l    df *ABS*	00000000 alt_tick.c
00000000 l    df *ABS*	00000000 altera_nios2_irq.c
00000000 l    df *ABS*	00000000 altera_avalon_cfi_flash_amd.c
0304a510 l     F .text	000000bc alt_write_word_amd
0304a3ec l     F .text	00000124 alt_wait_for_command_to_complete_amd
00000000 l    df *ABS*	00000000 altera_avalon_cfi_flash_intel.c
0304a7c4 l     F .text	0000018c alt_unlock_block_intel
0304a950 l     F .text	000000dc alt_write_word_intel
00000000 l    df *ABS*	00000000 alt_find_dev.c
00000000 l    df *ABS*	00000000 alt_find_file.c
00000000 l    df *ABS*	00000000 alt_get_fd.c
00000000 l    df *ABS*	00000000 alt_icache_flush.c
00000000 l    df *ABS*	00000000 atexit.c
00000000 l    df *ABS*	00000000 exit.c
00000000 l    df *ABS*	00000000 impure.c
0304c954 l     O .rwdata	00000400 impure_data
00000000 l    df *ABS*	00000000 int_errno.c
00000000 l    df *ABS*	00000000 memcmp.c
00000000 l    df *ABS*	00000000 __atexit.c
00000000 l    df *ABS*	00000000 __call_atexit.c
0304af1c l     F .text	00000004 register_fini
00000000 l    df *ABS*	00000000 alt_exit.c
0304b0d0 l     F .text	00000040 alt_sim_halt
03044d0c g     F .text	0000006c alt_main
030457fc g     F .text	00000048 alt_read_query_entry_32bit
0304e744 g     O .bss	00000100 alt_irq
03044f84 g     F .text	000002c0 alt_flash_cfi_write
0304cdcc g       *ABS*	00000000 __flash_rwdata_start
0304cd8b g     O .rwdata	00000005 acmd51
03043f84 g     F .text	000001f4 SD_read_block
03040360 g     F .text	00000090 LCD_begin
03044bd8 g     F .text	00000048 strlwr
00000000  w      *UND*	00000000 __errno
03045988 g     F .text	00000048 alt_write_flash_command_32bit_device_16bit_mode
03040000 g     F .entry	0000001c __reset
0304349c g     F .text	000004a8 SD_card_init
03040020 g       *ABS*	00000000 __flash_exceptions_start
030454a0 g     F .text	000002d8 alt_flash_program_block
0304e72c g     O .bss	00000004 errno
03043944 g     F .text	000001f8 SD_read_lba
0304e718 g     O .bss	00000004 alt_argv
03054d54 g       *ABS*	00000000 _gp
03044d78 g     F .text	00000030 usleep
0304c7d4 g     O .rwdata	00000180 alt_fd_list
0304e730 g     O .bss	00000014 response_buffer
0304aa2c g     F .text	00000094 alt_find_dev
03044970 g     F .text	000000a0 memcpy
03049c0c g     F .text	00000078 alt_io_redirect
0304b134 g       *ABS*	00000000 __DTOR_END__
0304a14c g     F .text	00000020 altera_nios2_irq_init
03043b3c g     F .text	0000027c response_R
03043444 g     F .text	00000058 Ncc
03047268 g     F .text	00000224 altera_avalon_jtag_uart_read
00000000  w      *UND*	00000000 malloc
03044960 g     F .text	00000008 __udivsi3
0304ac98 g     F .text	00000090 alt_icache_flush
0304a5cc g     F .text	00000084 alt_program_intel
03044178 g     F .text	000003c0 SD_write_block
030494b8 g     F .text	00000078 alt_dcache_flush
0304cda8 g     O .rwdata	00000004 alt_max_fd
03045778 g     F .text	00000040 alt_read_query_entry_8bit
0304cd72 g     O .rwdata	00000005 cmd16
0304a650 g     F .text	00000174 alt_erase_block_intel
030423f4 g     F .text	00000ff0 read_lyrics
0304cdc8 g     O .rwdata	00000004 _global_impure_ptr
0304e9d4 g       *ABS*	00000000 __bss_end
03049a50 g     F .text	000000f8 alt_iic_isr_register
0304a040 g     F .text	0000010c alt_tick
0304cd59 g     O .rwdata	00000005 cmd55
03048804 g     F .text	000000c8 altera_avalon_uart_init
0304cd54 g     O .rwdata	00000005 cmd0
0304cd90 g     O .rwdata	00000004 __ctype_ptr
03049a08 g     F .text	00000048 alt_ic_irq_enabled
03049fa8 g     F .text	00000098 alt_alarm_stop
0304cd86 g     O .rwdata	00000005 acmd41
0304e720 g     O .bss	00000004 alt_irq_active
030400ec g     F .exceptions	000000c8 alt_irq_handler
0304c7ac g     O .rwdata	00000028 alt_dev_null
03045c90 g     F .text	000000ac alt_set_flash_algorithm_func
03049530 g     F .text	00000044 alt_dcache_flush_all
03045844 g     F .text	0000003c alt_write_flash_command_8bit_device_8bit_mode
0304cdcc g       *ABS*	00000000 __ram_rwdata_end
0304cda0 g     O .rwdata	00000008 alt_dev_list
0304b490 g       *ABS*	00000000 __ram_rodata_end
03046b44 g     F .text	000000dc alt_check_primary_table
03044968 g     F .text	00000008 __umodsi3
030452d4 g     F .text	00000068 alt_flash_cfi_read
03045a18 g     F .text	00000034 alt_write_native_8bit
0304e9d4 g       *ABS*	00000000 end
03045880 g     F .text	0000007c alt_write_flash_command_16bit_device_8bit_mode
03047ea0 g     F .text	0000050c altera_avalon_lcd_16207_write
0304cd6d g     O .rwdata	00000005 cmd9
03048e94 g     F .text	000001c8 altera_avalon_uart_write
03045db8 g     F .text	000005e0 alt_read_cfi_table
03046d68 g     F .text	000000c0 altera_avalon_jtag_uart_init
0304b130 g       *ABS*	00000000 __CTOR_LIST__
03080000 g       *ABS*	00000000 __alt_stack_pointer
0304867c g     F .text	00000090 alt_avalon_timer_sc_init
03048764 g     F .text	00000058 altera_avalon_uart_write_fd
030487bc g     F .text	00000048 altera_avalon_uart_close_fd
0304748c g     F .text	00000240 altera_avalon_jtag_uart_write
03044eb0 g     F .text	0000009c alt_flash_cfi_init
0304af20 g     F .text	000001b0 __call_exitprocs
030401b4 g     F .text	0000004c _start
0304e724 g     O .bss	00000004 _alt_tick_rate
0304e728 g     O .bss	00000004 _alt_nticks
03044ddc g     F .text	0000009c alt_sys_init
0304ade8 g     F .text	00000134 __register_exitproc
030457b8 g     F .text	00000044 alt_read_query_entry_16bit
0304cd77 g     O .rwdata	00000005 cmd17
03047100 g     F .text	00000074 altera_avalon_jtag_uart_close
0304b490 g       *ABS*	00000000 __ram_rwdata_start
0304b134 g       *ABS*	00000000 __ram_rodata_start
03045ab0 g     F .text	000001e0 alt_set_flash_width_func
03046c20 g     F .text	00000058 altera_avalon_jtag_uart_read_fd
0304abe0 g     F .text	000000b8 alt_get_fd
03049210 g     F .text	0000014c alt_busy_sleep
0304a1d4 g     F .text	00000218 alt_erase_block_amd
03044538 g     F .text	000001a0 show_name
0304ad74 g     F .text	00000074 memcmp
03046cd0 g     F .text	00000048 altera_avalon_jtag_uart_close_fd
0304e9d4 g       *ABS*	00000000 __alt_stack_base
03046d18 g     F .text	00000050 altera_avalon_jtag_uart_ioctl_fd
03046398 g     F .text	000007ac alt_read_cfi_width
0304aac0 g     F .text	00000120 alt_find_file
030495a0 g     F .text	000000b4 alt_dev_llist_insert
0304cdb0 g     O .rwdata	00000008 alt_flash_dev_list
0304e708 g     O .bss	00000005 cmd_buffer
03045944 g     F .text	00000044 alt_write_flash_command_16bit_device_16bit_mode
0304e70d g     O .bss	00000001 read_status
0304e708 g       *ABS*	00000000 __bss_start
0304cd81 g     O .rwdata	00000005 acmd6
03040200 g     F .text	0000009c LCD_Init
0304cd5e g     O .rwdata	00000005 cmd2
03044a10 g     F .text	00000098 memset
030403f0 g     F .text	00000ba8 main
0304e71c g     O .bss	00000004 alt_envp
0304cd7c g     O .rwdata	00000005 cmd24
03046c78 g     F .text	00000058 altera_avalon_jtag_uart_write_fd
03048478 g     F .text	0000013c altera_avalon_lcd_16207_init
03040324 g     F .text	0000003c LCD_Line2
0304e844 g     O .bss	00000190 _atexit0
030446d8 g     F .text	0000014c time
0304cdac g     O .rwdata	00000004 alt_errno
030459d0 g     F .text	00000048 alt_write_flash_command_32bit_device_32bit_mode
0304533c g     F .text	00000164 alt_write_value_to_flash
03045a4c g     F .text	00000034 alt_write_native_16bit
030448a0 g     F .text	00000060 __divsi3
02800000 g       *ABS*	00000000 __alt_mem_cfi_flash
0304b134 g       *ABS*	00000000 __CTOR_END__
03044aa8 g     F .text	000000bc strcmp
030421dc g     F .text	00000218 find_cluster
0304b134 g       *ABS*	00000000 __flash_rodata_start
0304b134 g       *ABS*	00000000 __DTOR_LIST__
0304e70e g     O .bss	00000001 write_status
03044da8 g     F .text	00000034 alt_irq_init
0304029c g     F .text	00000088 LCD_Show_Text
03049f48 g     F .text	00000060 alt_release_fd
0304cd63 g     O .rwdata	00000005 cmd3
0304ad28 g     F .text	00000014 atexit
0304cdc4 g     O .rwdata	00000004 _impure_ptr
0304e714 g     O .bss	00000004 alt_argc
03049718 g     F .text	00000064 _do_dtors
03040020 g       .exceptions	00000000 alt_irq_entry
03040f98 g     F .text	00001244 file_list
030485b4 g     F .text	00000058 altera_avalon_lcd_16207_write_fd
0304cd98 g     O .rwdata	00000008 alt_fs_list
030458fc g     F .text	00000048 alt_write_flash_command_32bit_device_8bit_mode
03043db8 g     F .text	000001cc send_cmd
03040020 g       *ABS*	00000000 __ram_exceptions_start
03040000 g       *ABS*	00000000 __alt_mem_onchip_memory2
0304987c g     F .text	00000050 alt_ic_isr_register
0304cdcc g       *ABS*	00000000 _edata
0304870c g     F .text	00000058 altera_avalon_uart_read_fd
0304e9d4 g       *ABS*	00000000 _end
0304977c g     F .text	0000007c alt_flash_open_dev
030401b4 g       *ABS*	00000000 __ram_exceptions_end
03047174 g     F .text	000000f4 altera_avalon_jtag_uart_ioctl
03049968 g     F .text	000000a0 alt_ic_irq_disable
0304e70f g     O .bss	00000002 RCA
0304ad3c g     F .text	00000038 exit
030497f8 g     F .text	00000054 alt_flash_close_dev
03044900 g     F .text	00000060 __modsi3
03080000 g       *ABS*	00000000 __alt_data_end
03040020 g     F .exceptions	00000000 alt_exception
0304b1b4 g     O .rodata	00000101 _ctype_
0304cd68 g     O .rwdata	00000005 cmd7
03048ba4 g     F .text	00000060 altera_avalon_uart_close
0304b110 g     F .text	00000020 _exit
030490bc g     F .text	00000154 alt_alarm_start
03045a80 g     F .text	00000030 alt_write_native_32bit
03044b64 g     F .text	00000074 strlen
03049d60 g     F .text	00000188 open
03045244 g     F .text	00000090 alt_flash_cfi_get_info
0304984c g     F .text	00000030 alt_icache_flush_all
0304cdb8 g     O .rwdata	00000004 alt_priority_mask
030498cc g     F .text	0000009c alt_ic_irq_enable
03048c04 g     F .text	00000230 altera_avalon_uart_read
0304cdbc g     O .rwdata	00000008 alt_alarm_list
030496b4 g     F .text	00000064 _do_ctors
030433e4 g     F .text	00000060 Ncr
0304935c g     F .text	000000fc close
0304a16c g     F .text	00000068 alt_program_amd
03044c20 g     F .text	00000080 alt_load
00000000  w      *UND*	00000000 free



Disassembly of section .entry:

03040000 <__reset>:
#if NIOS2_ICACHE_SIZE > 0 && defined(ALT_ALLOW_CODE_AT_RESET) && !defined(ALT_SIM_OPTIMIZE)
    /* Assume the instruction cache size is always a power of two. */
#if NIOS2_ICACHE_SIZE > 0x8000
    movhi r2, %hi(NIOS2_ICACHE_SIZE)
#else
    movui r2, NIOS2_ICACHE_SIZE
 3040000:	00840014 	movui	r2,4096
#endif

0:
    initi r2
 3040004:	1001483a 	initi	r2
    addi r2, r2, -NIOS2_ICACHE_LINE_SIZE
 3040008:	10bff804 	addi	r2,r2,-32
    bgt r2, zero, 0b
 304000c:	00bffd16 	blt	zero,r2,3040004 <__reset+0x4>
 * Jump to the _start entry point in the .text section if reset code
 * is allowed or if optimizing for RTL simulation.
 */
#if defined(ALT_ALLOW_CODE_AT_RESET) || defined(ALT_SIM_OPTIMIZE)
    /* Jump to the _start entry point in the .text section. */
    movhi r1, %hi(_start)
 3040010:	0040c134 	movhi	at,772
    ori r1, r1, %lo(_start)
 3040014:	08406d14 	ori	at,at,436
    jmp r1
 3040018:	0800683a 	jmp	at
 304001c:	00000000 	call	0 <__alt_mem_cfi_flash-0x2800000>

Disassembly of section .exceptions:

03040020 <alt_exception>:
         * Process an exception.  For all exceptions we must preserve all
         * caller saved registers on the stack (See the Nios2 ABI
         * documentation for details).
         */

        addi  sp, sp, -76
 3040020:	deffed04 	addi	sp,sp,-76

#endif

#endif

        stw   ra,  0(sp)
 3040024:	dfc00015 	stw	ra,0(sp)
        /*
         * Leave a gap in the stack frame at 4(sp) for the muldiv handler to
         * store zero into.
         */

        stw   r1,   8(sp)
 3040028:	d8400215 	stw	at,8(sp)
        stw   r2,  12(sp)
 304002c:	d8800315 	stw	r2,12(sp)
        stw   r3,  16(sp)
 3040030:	d8c00415 	stw	r3,16(sp)
        stw   r4,  20(sp)
 3040034:	d9000515 	stw	r4,20(sp)
        stw   r5,  24(sp)
 3040038:	d9400615 	stw	r5,24(sp)
        stw   r6,  28(sp)
 304003c:	d9800715 	stw	r6,28(sp)
        stw   r7,  32(sp)
 3040040:	d9c00815 	stw	r7,32(sp)

        rdctl r5, estatus
 3040044:	000b307a 	rdctl	r5,estatus

        stw   r8,  36(sp)
 3040048:	da000915 	stw	r8,36(sp)
        stw   r9,  40(sp)
 304004c:	da400a15 	stw	r9,40(sp)
        stw   r10, 44(sp)
 3040050:	da800b15 	stw	r10,44(sp)
        stw   r11, 48(sp)
 3040054:	dac00c15 	stw	r11,48(sp)
        stw   r12, 52(sp)
 3040058:	db000d15 	stw	r12,52(sp)
        stw   r13, 56(sp)
 304005c:	db400e15 	stw	r13,56(sp)
        stw   r14, 60(sp)
 3040060:	db800f15 	stw	r14,60(sp)
        stw   r15, 64(sp)
 3040064:	dbc01015 	stw	r15,64(sp)
        /*
         * ea-4 contains the address of the instruction being executed
         * when the exception occured. For interrupt exceptions, we will
         * will be re-issue the isntruction. Store it in 72(sp)
         */
        stw   r5,  68(sp)  /* estatus */
 3040068:	d9401115 	stw	r5,68(sp)
        addi  r15, ea, -4  /* instruction that caused exception */
 304006c:	ebffff04 	addi	r15,ea,-4
        stw   r15,  72(sp)
 3040070:	dbc01215 	stw	r15,72(sp)
#else
        /*
         * Test to see if the exception was a software exception or caused 
         * by an external interrupt, and vector accordingly.
         */
        rdctl r4, ipending
 3040074:	0009313a 	rdctl	r4,ipending
        andi  r2, r5, 1
 3040078:	2880004c 	andi	r2,r5,1
        beq   r2, zero, .Lnot_irq
 304007c:	10000326 	beq	r2,zero,304008c <alt_exception+0x6c>
        beq   r4, zero, .Lnot_irq
 3040080:	20000226 	beq	r4,zero,304008c <alt_exception+0x6c>
        /*
         * Now that all necessary registers have been preserved, call 
         * alt_irq_handler() to process the interrupts.
         */

        call alt_irq_handler
 3040084:	30400ec0 	call	30400ec <alt_irq_handler>

        .section .exceptions.irqreturn, "xa"

        br    .Lexception_exit
 3040088:	00000306 	br	3040098 <alt_exception+0x78>
         * upon completion, so we write ea (address of instruction *after*
         * the one where the exception occured) into 72(sp). The actual
         * instruction that caused the exception is written in r2, which these
         * handlers will utilize.
         */
        stw   ea,  72(sp)  /* Don't re-issue */
 304008c:	df401215 	stw	ea,72(sp)
        ldw   r2, -4(ea)   /* Instruction that caused exception */
 3040090:	e8bfff17 	ldw	r2,-4(ea)
#ifdef NIOS2_HAS_DEBUG_STUB
       /*
        *  Either tell the user now (if there is a debugger attached) or go into
        *  the debug monitor which will loop until a debugger is attached.
        */
        break
 3040094:	003da03a 	break	0
        /* 
         * Restore the saved registers, so that all general purpose registers 
         * have been restored to their state at the time the interrupt occured.
         */

        ldw   r5,  68(sp)
 3040098:	d9401117 	ldw	r5,68(sp)
        ldw   ea,  72(sp)  /* This becomes the PC once eret is executed */
 304009c:	df401217 	ldw	ea,72(sp)
        ldw   ra,   0(sp)
 30400a0:	dfc00017 	ldw	ra,0(sp)

        wrctl estatus, r5
 30400a4:	2801707a 	wrctl	estatus,r5

        ldw   r1,   8(sp)
 30400a8:	d8400217 	ldw	at,8(sp)
        ldw   r2,  12(sp)
 30400ac:	d8800317 	ldw	r2,12(sp)
        ldw   r3,  16(sp)
 30400b0:	d8c00417 	ldw	r3,16(sp)
        ldw   r4,  20(sp)
 30400b4:	d9000517 	ldw	r4,20(sp)
        ldw   r5,  24(sp)
 30400b8:	d9400617 	ldw	r5,24(sp)
        ldw   r6,  28(sp)
 30400bc:	d9800717 	ldw	r6,28(sp)
        ldw   r7,  32(sp)
 30400c0:	d9c00817 	ldw	r7,32(sp)
#ifdef ALT_STACK_CHECK
        ldw   et, %gprel(alt_exception_old_stack_limit)(gp)
#endif
#endif

        ldw   r8,  36(sp)
 30400c4:	da000917 	ldw	r8,36(sp)
        ldw   r9,  40(sp)
 30400c8:	da400a17 	ldw	r9,40(sp)
        ldw   r10, 44(sp)
 30400cc:	da800b17 	ldw	r10,44(sp)
        ldw   r11, 48(sp)
 30400d0:	dac00c17 	ldw	r11,48(sp)
        ldw   r12, 52(sp)
 30400d4:	db000d17 	ldw	r12,52(sp)
        ldw   r13, 56(sp)
 30400d8:	db400e17 	ldw	r13,56(sp)
        ldw   r14, 60(sp)
 30400dc:	db800f17 	ldw	r14,60(sp)
        ldw   r15, 64(sp)
 30400e0:	dbc01017 	ldw	r15,64(sp)
#endif

        ldw   sp,  76(sp)

#else
        addi  sp, sp, 76
 30400e4:	dec01304 	addi	sp,sp,76

        /*
         * Return to the interrupted instruction.
         */

        eret
 30400e8:	ef80083a 	eret

030400ec <alt_irq_handler>:
 * instruction is present if the macro ALT_CI_INTERRUPT_VECTOR defined.
 */

void alt_irq_handler (void) __attribute__ ((section (".exceptions")));
void alt_irq_handler (void)
{
 30400ec:	defff904 	addi	sp,sp,-28
 30400f0:	dfc00615 	stw	ra,24(sp)
 30400f4:	df000515 	stw	fp,20(sp)
 30400f8:	df000504 	addi	fp,sp,20
#ifndef NIOS2_EIC_PRESENT
static ALT_INLINE alt_u32 ALT_ALWAYS_INLINE alt_irq_pending (void)
{
  alt_u32 active;

  NIOS2_READ_IPENDING (active);
 30400fc:	0005313a 	rdctl	r2,ipending
 3040100:	e0bffc15 	stw	r2,-16(fp)

  return active;
 3040104:	e0bffc17 	ldw	r2,-16(fp)
   * Consider the case where the high priority interupt is asserted during
   * the interrupt entry sequence for a lower priority interrupt to see why
   * this is the case.
   */

  active = alt_irq_pending ();
 3040108:	e0bfff15 	stw	r2,-4(fp)

  do
  {
    i = 0;
 304010c:	e03ffd15 	stw	zero,-12(fp)
    mask = 1;
 3040110:	00800044 	movi	r2,1
 3040114:	e0bffe15 	stw	r2,-8(fp)
     * called to clear the interrupt condition.
     */

    do
    {
      if (active & mask)
 3040118:	e0ffff17 	ldw	r3,-4(fp)
 304011c:	e0bffe17 	ldw	r2,-8(fp)
 3040120:	1884703a 	and	r2,r3,r2
 3040124:	1005003a 	cmpeq	r2,r2,zero
 3040128:	1000161e 	bne	r2,zero,3040184 <alt_irq_handler+0x98>
      { 
#ifdef ALT_ENHANCED_INTERRUPT_API_PRESENT
        alt_irq[i].handler(alt_irq[i].context); 
 304012c:	e0bffd17 	ldw	r2,-12(fp)
 3040130:	00c0c174 	movhi	r3,773
 3040134:	18f9d104 	addi	r3,r3,-6332
 3040138:	100490fa 	slli	r2,r2,3
 304013c:	10c5883a 	add	r2,r2,r3
 3040140:	11400017 	ldw	r5,0(r2)
 3040144:	e0bffd17 	ldw	r2,-12(fp)
 3040148:	00c0c174 	movhi	r3,773
 304014c:	18f9d104 	addi	r3,r3,-6332
 3040150:	100490fa 	slli	r2,r2,3
 3040154:	10c5883a 	add	r2,r2,r3
 3040158:	10800104 	addi	r2,r2,4
 304015c:	11000017 	ldw	r4,0(r2)
 3040160:	283ee83a 	callr	r5
#ifndef NIOS2_EIC_PRESENT
static ALT_INLINE alt_u32 ALT_ALWAYS_INLINE alt_irq_pending (void)
{
  alt_u32 active;

  NIOS2_READ_IPENDING (active);
 3040164:	0005313a 	rdctl	r2,ipending
 3040168:	e0bffb15 	stw	r2,-20(fp)

  return active;
 304016c:	e0bffb17 	ldw	r2,-20(fp)
      mask <<= 1;
      i++;

    } while (1);

    active = alt_irq_pending ();
 3040170:	e0bfff15 	stw	r2,-4(fp)
    
  } while (active);
 3040174:	e0bfff17 	ldw	r2,-4(fp)
 3040178:	1004c03a 	cmpne	r2,r2,zero
 304017c:	103fe31e 	bne	r2,zero,304010c <alt_irq_handler+0x20>
 3040180:	00000706 	br	30401a0 <alt_irq_handler+0xb4>
#else
        alt_irq[i].handler(alt_irq[i].context, i); 
#endif
        break;
      }
      mask <<= 1;
 3040184:	e0bffe17 	ldw	r2,-8(fp)
 3040188:	1085883a 	add	r2,r2,r2
 304018c:	e0bffe15 	stw	r2,-8(fp)
      i++;
 3040190:	e0bffd17 	ldw	r2,-12(fp)
 3040194:	10800044 	addi	r2,r2,1
 3040198:	e0bffd15 	stw	r2,-12(fp)

    } while (1);
 304019c:	003fde06 	br	3040118 <alt_irq_handler+0x2c>
  /*
   * Notify the operating system that interrupt processing is complete.
   */ 

  ALT_OS_INT_EXIT();
}
 30401a0:	e037883a 	mov	sp,fp
 30401a4:	dfc00117 	ldw	ra,4(sp)
 30401a8:	df000017 	ldw	fp,0(sp)
 30401ac:	dec00204 	addi	sp,sp,8
 30401b0:	f800283a 	ret

Disassembly of section .text:

030401b4 <_start>:

    /* Assume the data cache size is always a power of two. */
#if NIOS2_DCACHE_SIZE > 0x8000
    movhi r2, %hi(NIOS2_DCACHE_SIZE)
#else
    movui r2, NIOS2_DCACHE_SIZE
 30401b4:	00820014 	movui	r2,2048
#endif

0:
    initd 0(r2)
 30401b8:	10000033 	initd	0(r2)
    addi r2, r2, -NIOS2_DCACHE_LINE_SIZE
 30401bc:	10bff804 	addi	r2,r2,-32
    bgt r2, zero, 0b
 30401c0:	00bffd16 	blt	zero,r2,30401b8 <_start+0x4>
#if (NIOS2_NUM_OF_SHADOW_REG_SETS == 0)    
    /*
     * Now that the caches are initialized, set up the stack pointer.
     * The value provided by the linker is assumed to be correctly aligned.
     */
    movhi sp, %hi(__alt_stack_pointer)
 30401c4:	06c0c234 	movhi	sp,776
    ori sp, sp, %lo(__alt_stack_pointer)
 30401c8:	dec00014 	ori	sp,sp,0

    /* Set up the global pointer. */
    movhi gp, %hi(_gp)
 30401cc:	0680c174 	movhi	gp,773
    ori gp, gp, %lo(_gp)
 30401d0:	d6935514 	ori	gp,gp,19796
 */
#ifndef ALT_SIM_OPTIMIZE
    /* Log that the BSS is about to be cleared. */
    ALT_LOG_PUTS(alt_log_msg_bss)

    movhi r2, %hi(__bss_start)
 30401d4:	0080c134 	movhi	r2,772
    ori r2, r2, %lo(__bss_start)
 30401d8:	10b9c214 	ori	r2,r2,59144

    movhi r3, %hi(__bss_end)
 30401dc:	00c0c134 	movhi	r3,772
    ori r3, r3, %lo(__bss_end)
 30401e0:	18fa7514 	ori	r3,r3,59860

    beq r2, r3, 1f
 30401e4:	10c00326 	beq	r2,r3,30401f4 <_start+0x40>

0:
    stw zero, (r2)
 30401e8:	10000015 	stw	zero,0(r2)
    addi r2, r2, 4
 30401ec:	10800104 	addi	r2,r2,4
    bltu r2, r3, 0b
 30401f0:	10fffd36 	bltu	r2,r3,30401e8 <_start+0x34>
     * section aren't defined until alt_load() has been called).
     */
    mov   et, zero
#endif

    call alt_load
 30401f4:	3044c200 	call	3044c20 <alt_load>

    /* Log that alt_main is about to be called. */
    ALT_LOG_PUTS(alt_log_msg_alt_main)

    /* Call the C entry point. It should never return. */
    call alt_main
 30401f8:	3044d0c0 	call	3044d0c <alt_main>

030401fc <alt_after_alt_main>:

    /* Wait in infinite loop in case alt_main does return. */
alt_after_alt_main:
    br alt_after_alt_main
 30401fc:	003fff06 	br	30401fc <alt_after_alt_main>

03040200 <LCD_Init>:
#define lcd_read_cmd(base)                            IORD(base, 1)
#define lcd_write_data(base, data)                    IOWR(base, 2, data)
#define lcd_read_data(base)                           IORD(base, 3) 
//-------------------------------------------------------------------------
void LCD_Init()
{
 3040200:	defffe04 	addi	sp,sp,-8
 3040204:	dfc00115 	stw	ra,4(sp)
 3040208:	df000015 	stw	fp,0(sp)
 304020c:	d839883a 	mov	fp,sp
  lcd_write_cmd(LCD_BASE,0x38);
 3040210:	00c04034 	movhi	r3,256
 3040214:	18c03804 	addi	r3,r3,224
 3040218:	00800e04 	movi	r2,56
 304021c:	18800035 	stwio	r2,0(r3)
  usleep(2000);
 3040220:	0101f404 	movi	r4,2000
 3040224:	3044d780 	call	3044d78 <usleep>
  lcd_write_cmd(LCD_BASE,0x0C);
 3040228:	00c04034 	movhi	r3,256
 304022c:	18c03804 	addi	r3,r3,224
 3040230:	00800304 	movi	r2,12
 3040234:	18800035 	stwio	r2,0(r3)
  usleep(2000);
 3040238:	0101f404 	movi	r4,2000
 304023c:	3044d780 	call	3044d78 <usleep>
  lcd_write_cmd(LCD_BASE,0x01);
 3040240:	00c04034 	movhi	r3,256
 3040244:	18c03804 	addi	r3,r3,224
 3040248:	00800044 	movi	r2,1
 304024c:	18800035 	stwio	r2,0(r3)
  usleep(2000);
 3040250:	0101f404 	movi	r4,2000
 3040254:	3044d780 	call	3044d78 <usleep>
  lcd_write_cmd(LCD_BASE,0x06);
 3040258:	00c04034 	movhi	r3,256
 304025c:	18c03804 	addi	r3,r3,224
 3040260:	00800184 	movi	r2,6
 3040264:	18800035 	stwio	r2,0(r3)
  usleep(2000);
 3040268:	0101f404 	movi	r4,2000
 304026c:	3044d780 	call	3044d78 <usleep>
  lcd_write_cmd(LCD_BASE,0x80);
 3040270:	00c04034 	movhi	r3,256
 3040274:	18c03804 	addi	r3,r3,224
 3040278:	00802004 	movi	r2,128
 304027c:	18800035 	stwio	r2,0(r3)
  usleep(2000);
 3040280:	0101f404 	movi	r4,2000
 3040284:	3044d780 	call	3044d78 <usleep>
}
 3040288:	e037883a 	mov	sp,fp
 304028c:	dfc00117 	ldw	ra,4(sp)
 3040290:	df000017 	ldw	fp,0(sp)
 3040294:	dec00204 	addi	sp,sp,8
 3040298:	f800283a 	ret

0304029c <LCD_Show_Text>:
//-------------------------------------------------------------------------
void LCD_Show_Text(char* Text)
{
 304029c:	defffb04 	addi	sp,sp,-20
 30402a0:	dfc00415 	stw	ra,16(sp)
 30402a4:	df000315 	stw	fp,12(sp)
 30402a8:	dc000215 	stw	r16,8(sp)
 30402ac:	df000204 	addi	fp,sp,8
 30402b0:	e13fff15 	stw	r4,-4(fp)
  int i;
  for(i=0;i<strlen(Text);i++)
 30402b4:	e03ffe15 	stw	zero,-8(fp)
 30402b8:	00001006 	br	30402fc <LCD_Show_Text+0x60>
  {
    lcd_write_data(LCD_BASE,Text[i]);
 30402bc:	e0bffe17 	ldw	r2,-8(fp)
 30402c0:	1007883a 	mov	r3,r2
 30402c4:	e0bfff17 	ldw	r2,-4(fp)
 30402c8:	1885883a 	add	r2,r3,r2
 30402cc:	10800003 	ldbu	r2,0(r2)
 30402d0:	10c03fcc 	andi	r3,r2,255
 30402d4:	18c0201c 	xori	r3,r3,128
 30402d8:	18ffe004 	addi	r3,r3,-128
 30402dc:	00804034 	movhi	r2,256
 30402e0:	10803a04 	addi	r2,r2,232
 30402e4:	10c00035 	stwio	r3,0(r2)
    usleep(2000);
 30402e8:	0101f404 	movi	r4,2000
 30402ec:	3044d780 	call	3044d78 <usleep>
}
//-------------------------------------------------------------------------
void LCD_Show_Text(char* Text)
{
  int i;
  for(i=0;i<strlen(Text);i++)
 30402f0:	e0bffe17 	ldw	r2,-8(fp)
 30402f4:	10800044 	addi	r2,r2,1
 30402f8:	e0bffe15 	stw	r2,-8(fp)
 30402fc:	e43ffe17 	ldw	r16,-8(fp)
 3040300:	e13fff17 	ldw	r4,-4(fp)
 3040304:	3044b640 	call	3044b64 <strlen>
 3040308:	80bfec36 	bltu	r16,r2,30402bc <LCD_Show_Text+0x20>
  {
    lcd_write_data(LCD_BASE,Text[i]);
    usleep(2000);
  }
}
 304030c:	e037883a 	mov	sp,fp
 3040310:	dfc00217 	ldw	ra,8(sp)
 3040314:	df000117 	ldw	fp,4(sp)
 3040318:	dc000017 	ldw	r16,0(sp)
 304031c:	dec00304 	addi	sp,sp,12
 3040320:	f800283a 	ret

03040324 <LCD_Line2>:
//-------------------------------------------------------------------------
void LCD_Line2()
{
 3040324:	defffe04 	addi	sp,sp,-8
 3040328:	dfc00115 	stw	ra,4(sp)
 304032c:	df000015 	stw	fp,0(sp)
 3040330:	d839883a 	mov	fp,sp
  lcd_write_cmd(LCD_BASE,0xC0);
 3040334:	00c04034 	movhi	r3,256
 3040338:	18c03804 	addi	r3,r3,224
 304033c:	00803004 	movi	r2,192
 3040340:	18800035 	stwio	r2,0(r3)
  usleep(2000);
 3040344:	0101f404 	movi	r4,2000
 3040348:	3044d780 	call	3044d78 <usleep>
}
 304034c:	e037883a 	mov	sp,fp
 3040350:	dfc00117 	ldw	ra,4(sp)
 3040354:	df000017 	ldw	fp,0(sp)
 3040358:	dec00204 	addi	sp,sp,8
 304035c:	f800283a 	ret

03040360 <LCD_begin>:
//-------------------------------------------------------------------------
void LCD_begin()
{
 3040360:	defff604 	addi	sp,sp,-40
 3040364:	dfc00915 	stw	ra,36(sp)
 3040368:	df000815 	stw	fp,32(sp)
 304036c:	df000804 	addi	fp,sp,32
  char line1[16] = "Welcome to Our ";
 3040370:	00c0c174 	movhi	r3,773
 3040374:	18ec4d04 	addi	r3,r3,-20172
 3040378:	18800017 	ldw	r2,0(r3)
 304037c:	e0bff815 	stw	r2,-32(fp)
 3040380:	18800117 	ldw	r2,4(r3)
 3040384:	e0bff915 	stw	r2,-28(fp)
 3040388:	18800217 	ldw	r2,8(r3)
 304038c:	e0bffa15 	stw	r2,-24(fp)
 3040390:	18800317 	ldw	r2,12(r3)
 3040394:	e0bffb15 	stw	r2,-20(fp)
  char line2[16] = "Final Project";
 3040398:	00c0c174 	movhi	r3,773
 304039c:	18ec5104 	addi	r3,r3,-20156
 30403a0:	18800017 	ldw	r2,0(r3)
 30403a4:	e0bffc15 	stw	r2,-16(fp)
 30403a8:	18800117 	ldw	r2,4(r3)
 30403ac:	e0bffd15 	stw	r2,-12(fp)
 30403b0:	18800217 	ldw	r2,8(r3)
 30403b4:	e0bffe15 	stw	r2,-8(fp)
 30403b8:	1880030b 	ldhu	r2,12(r3)
 30403bc:	e0bfff0d 	sth	r2,-4(fp)
 30403c0:	e03fff8d 	sth	zero,-2(fp)
  //  Initialize the LCD
  LCD_Init();
 30403c4:	30402000 	call	3040200 <LCD_Init>
  LCD_Show_Text(line1);
 30403c8:	e13ff804 	addi	r4,fp,-32
 30403cc:	304029c0 	call	304029c <LCD_Show_Text>
  LCD_Line2();
 30403d0:	30403240 	call	3040324 <LCD_Line2>
  LCD_Show_Text(line2);
 30403d4:	e13ffc04 	addi	r4,fp,-16
 30403d8:	304029c0 	call	304029c <LCD_Show_Text>
}
 30403dc:	e037883a 	mov	sp,fp
 30403e0:	dfc00117 	ldw	ra,4(sp)
 30403e4:	df000017 	ldw	fp,0(sp)
 30403e8:	dec00204 	addi	sp,sp,8
 30403ec:	f800283a 	ret

030403f0 <main>:
#define lcd_write_data(base, data)                    IOWR(base, 2, data)
#define lcd_read_data(base)                           IORD(base, 3) 


int main(void)
{
 30403f0:	dee5ad04 	addi	sp,sp,-26956
 30403f4:	dfda5215 	stw	ra,26952(sp)
 30403f8:	df1a5115 	stw	fp,26948(sp)
 30403fc:	df1a5104 	addi	fp,sp,26948
  
  //LCD_begin();

  UINT16 i=0,temporary1,temporary2,song_num=0,song_position=0,k,key,key2,key3,key4,sw[17],sw0,sw1,clupsec_num,data_sector;
 3040400:	e025c615 	stw	zero,-26856(fp)
 3040404:	e025c315 	stw	zero,-26868(fp)
 3040408:	e025c215 	stw	zero,-26872(fp)
  
  
  UINT16 back[2]={0},num_lyric,num_music,num_lyrics,time_base,j_base,base,fat_addr,cluster_num;
 304040c:	0005883a 	mov	r2,zero
 3040410:	0007883a 	mov	r3,zero
 3040414:	e0a5da15 	stw	r2,-26776(fp)
 3040418:	e0e5db15 	stw	r3,-26772(fp)

  UINT32 j;
  unsigned int cl[3000];
  BYTE Buffer[512]={0};
 304041c:	e1319704 	addi	r4,fp,-14756
 3040420:	01808004 	movi	r6,512
 3040424:	000b883a 	mov	r5,zero
 3040428:	3044a100 	call	3044a10 <memset>
  
  while(SD_card_init())  // wait for the card to be inserted
 304042c:	00000306 	br	304043c <main+0x4c>
    usleep(500000);
 3040430:	01000234 	movhi	r4,8
 3040434:	21284804 	addi	r4,r4,-24288
 3040438:	3044d780 	call	3044d78 <usleep>

  UINT32 j;
  unsigned int cl[3000];
  BYTE Buffer[512]={0};
  
  while(SD_card_init())  // wait for the card to be inserted
 304043c:	304349c0 	call	304349c <SD_card_init>
 3040440:	10803fcc 	andi	r2,r2,255
 3040444:	1004c03a 	cmpne	r2,r2,zero
 3040448:	103ff91e 	bne	r2,zero,3040430 <main+0x40>
    usleep(500000);
  LCD_begin();
 304044c:	30403600 	call	3040360 <LCD_begin>
  struct music0 music[30];
  struct lyric0 lyric[30];
  struct lyrics0 lyrics;
  
  char title[2][18]={" Press KEY1 to   ",
                      " select a song   "}; 
 3040450:	0080c174 	movhi	r2,773
 3040454:	10ac5504 	addi	r2,r2,-20140
 3040458:	e13feb04 	addi	r4,fp,-84
 304045c:	100b883a 	mov	r5,r2
 3040460:	01800904 	movi	r6,36
 3040464:	30449700 	call	3044970 <memcpy>
  char text[2][16]={"songs",
                    "lyrics"};
 3040468:	e03ff415 	stw	zero,-48(fp)
 304046c:	e03ff515 	stw	zero,-44(fp)
 3040470:	e03ff615 	stw	zero,-40(fp)
 3040474:	e03ff715 	stw	zero,-36(fp)
 3040478:	e03ff815 	stw	zero,-32(fp)
 304047c:	e03ff915 	stw	zero,-28(fp)
 3040480:	e03ffa15 	stw	zero,-24(fp)
 3040484:	e03ffb15 	stw	zero,-20(fp)
 3040488:	00c0c174 	movhi	r3,773
 304048c:	18ec5e04 	addi	r3,r3,-20104
 3040490:	18800017 	ldw	r2,0(r3)
 3040494:	e0bff415 	stw	r2,-48(fp)
 3040498:	1880010b 	ldhu	r2,4(r3)
 304049c:	e0bff50d 	sth	r2,-44(fp)
 30404a0:	e03ff58d 	sth	zero,-42(fp)
 30404a4:	e03ff60d 	sth	zero,-40(fp)
 30404a8:	e03ff68d 	sth	zero,-38(fp)
 30404ac:	e03ff70d 	sth	zero,-36(fp)
 30404b0:	e03ff78d 	sth	zero,-34(fp)
 30404b4:	00c0c174 	movhi	r3,773
 30404b8:	18ec6204 	addi	r3,r3,-20088
 30404bc:	18800017 	ldw	r2,0(r3)
 30404c0:	e0bff815 	stw	r2,-32(fp)
 30404c4:	1880010b 	ldhu	r2,4(r3)
 30404c8:	e0bff90d 	sth	r2,-28(fp)
 30404cc:	18800183 	ldbu	r2,6(r3)
 30404d0:	e0bff985 	stb	r2,-26(fp)
 30404d4:	e03ff9c5 	stb	zero,-25(fp)
 30404d8:	e03ffa05 	stb	zero,-24(fp)
 30404dc:	e03ffa45 	stb	zero,-23(fp)
 30404e0:	e03ffa85 	stb	zero,-22(fp)
 30404e4:	e03ffac5 	stb	zero,-21(fp)
 30404e8:	e03ffb05 	stb	zero,-20(fp)
 30404ec:	e03ffb45 	stb	zero,-19(fp)
 30404f0:	e03ffb85 	stb	zero,-18(fp)
 30404f4:	e03ffbc5 	stb	zero,-17(fp)
  char wait[16]="loading";
 30404f8:	00c0c174 	movhi	r3,773
 30404fc:	18ec6604 	addi	r3,r3,-20072
 3040500:	18800017 	ldw	r2,0(r3)
 3040504:	e0bffc15 	stw	r2,-16(fp)
 3040508:	18800117 	ldw	r2,4(r3)
 304050c:	e0bffd15 	stw	r2,-12(fp)
 3040510:	e03ffe15 	stw	zero,-8(fp)
 3040514:	e03fff15 	stw	zero,-4(fp)
  
  file_list(music,lyric,&num_music,&num_lyric,&clupsec_num, &data_sector,&fat_addr); // search and update the database from the SD card
 3040518:	e1e5dd04 	addi	r7,fp,-26764
 304051c:	e225dc04 	addi	r8,fp,-26768
 3040520:	e0a5d804 	addi	r2,fp,-26784
 3040524:	e0e5d904 	addi	r3,fp,-26780
 3040528:	e125de04 	addi	r4,fp,-26760
 304052c:	e1721704 	addi	r5,fp,-14244
 3040530:	e1b3bb04 	addi	r6,fp,-12564
 3040534:	d8800015 	stw	r2,0(sp)
 3040538:	d8c00115 	stw	r3,4(sp)
 304053c:	d9000215 	stw	r4,8(sp)
 3040540:	2809883a 	mov	r4,r5
 3040544:	300b883a 	mov	r5,r6
 3040548:	380d883a 	mov	r6,r7
 304054c:	400f883a 	mov	r7,r8
 3040550:	3040f980 	call	3040f98 <file_list>
  sw1=IORD(SW_BASE,0);
 3040554:	00804034 	movhi	r2,256
 3040558:	10801c04 	addi	r2,r2,112
 304055c:	10800037 	ldwio	r2,0(r2)
 3040560:	e0a5bb15 	stw	r2,-26900(fp)
  back[0]=sw1&0x20000;
 3040564:	e0a5bb17 	ldw	r2,-26900(fp)
 3040568:	108000ac 	andhi	r2,r2,2
 304056c:	e0a5da15 	stw	r2,-26776(fp)
 3040570:	00000006 	br	3040574 <main+0x184>
  
  while(1)
  { 
    
    IOWR(SEG7_BASE,0,0);
 3040574:	00804034 	movhi	r2,256
 3040578:	10801004 	addi	r2,r2,64
 304057c:	10000035 	stwio	zero,0(r2)
    sw0=IORD(SW_BASE,0);
 3040580:	00804034 	movhi	r2,256
 3040584:	10801c04 	addi	r2,r2,112
 3040588:	10800037 	ldwio	r2,0(r2)
 304058c:	e0a5bc15 	stw	r2,-26896(fp)
    sw0=sw0&0x07; 
 3040590:	e0a5bc17 	ldw	r2,-26896(fp)
 3040594:	108001cc 	andi	r2,r2,7
 3040598:	e0a5bc15 	stw	r2,-26896(fp)
    sw[0]=sw0&0x01;
 304059c:	e0a5bc17 	ldw	r2,-26896(fp)
 30405a0:	1080004c 	andi	r2,r2,1
 30405a4:	e0a5c715 	stw	r2,-26852(fp)
    sw[1]=sw0&0x02;   
 30405a8:	e0a5bc17 	ldw	r2,-26896(fp)
 30405ac:	1080008c 	andi	r2,r2,2
 30405b0:	e0a5c815 	stw	r2,-26848(fp)
    sw[2]=sw0&0x04; 
 30405b4:	e0a5bc17 	ldw	r2,-26896(fp)
 30405b8:	1080010c 	andi	r2,r2,4
 30405bc:	e0a5c915 	stw	r2,-26844(fp)
    

    if(!sw0)
 30405c0:	e0a5bc17 	ldw	r2,-26896(fp)
 30405c4:	1004c03a 	cmpne	r2,r2,zero
 30405c8:	1000b61e 	bne	r2,zero,30408a4 <main+0x4b4>
    {
      LCD_Init();   
 30405cc:	30402000 	call	3040200 <LCD_Init>
      LCD_Show_Text(title[0]);
 30405d0:	e13feb04 	addi	r4,fp,-84
 30405d4:	304029c0 	call	304029c <LCD_Show_Text>
      lcd_write_command(LCD_BASE,0xC0);
 30405d8:	00c04034 	movhi	r3,256
 30405dc:	18c03804 	addi	r3,r3,224
 30405e0:	00803004 	movi	r2,192
 30405e4:	18800035 	stwio	r2,0(r3)
      LCD_Show_Text(title[1]);
 30405e8:	e0bfeb04 	addi	r2,fp,-84
 30405ec:	10800484 	addi	r2,r2,18
 30405f0:	1009883a 	mov	r4,r2
 30405f4:	304029c0 	call	304029c <LCD_Show_Text>
      while(1)
      {
        key=IORD(KEY_BASE,0);      // wait till key2 is pressed
 30405f8:	00804034 	movhi	r2,256
 30405fc:	10801804 	addi	r2,r2,96
 3040600:	10800037 	ldwio	r2,0(r2)
 3040604:	e0a5c015 	stw	r2,-26880(fp)
        key2=~key&0x02;
 3040608:	e0a5c017 	ldw	r2,-26880(fp)
 304060c:	0084303a 	nor	r2,zero,r2
 3040610:	1080008c 	andi	r2,r2,2
 3040614:	e0a5bf15 	stw	r2,-26884(fp)
        if(key2)
 3040618:	e0a5bf17 	ldw	r2,-26884(fp)
 304061c:	1004c03a 	cmpne	r2,r2,zero
 3040620:	1000011e 	bne	r2,zero,3040628 <main+0x238>
          break;
      }
 3040624:	003ff406 	br	30405f8 <main+0x208>
      LCD_Init();
 3040628:	30402000 	call	3040200 <LCD_Init>
      lcd_write_command(LCD_BASE,0x80);
 304062c:	00c04034 	movhi	r3,256
 3040630:	18c03804 	addi	r3,r3,224
 3040634:	00802004 	movi	r2,128
 3040638:	18800035 	stwio	r2,0(r3)
      usleep(100);  
 304063c:	01001904 	movi	r4,100
 3040640:	3044d780 	call	3044d78 <usleep>
      lcd_write_data(LCD_BASE,(char)(num_music/10+0x30));   // display the number of wav files
 3040644:	e125dd17 	ldw	r4,-26764(fp)
 3040648:	01400284 	movi	r5,10
 304064c:	30449600 	call	3044960 <__udivsi3>
 3040650:	10800c04 	addi	r2,r2,48
 3040654:	10c03fcc 	andi	r3,r2,255
 3040658:	18c0201c 	xori	r3,r3,128
 304065c:	18ffe004 	addi	r3,r3,-128
 3040660:	00804034 	movhi	r2,256
 3040664:	10803a04 	addi	r2,r2,232
 3040668:	10c00035 	stwio	r3,0(r2)
      usleep(100);  
 304066c:	01001904 	movi	r4,100
 3040670:	3044d780 	call	3044d78 <usleep>
      lcd_write_data(LCD_BASE,(char)(num_music%10+0x30));
 3040674:	e125dd17 	ldw	r4,-26764(fp)
 3040678:	01400284 	movi	r5,10
 304067c:	30449680 	call	3044968 <__umodsi3>
 3040680:	10800c04 	addi	r2,r2,48
 3040684:	10c03fcc 	andi	r3,r2,255
 3040688:	18c0201c 	xori	r3,r3,128
 304068c:	18ffe004 	addi	r3,r3,-128
 3040690:	00804034 	movhi	r2,256
 3040694:	10803a04 	addi	r2,r2,232
 3040698:	10c00035 	stwio	r3,0(r2)
      usleep(100);
 304069c:	01001904 	movi	r4,100
 30406a0:	3044d780 	call	3044d78 <usleep>
      for(i=0;i<5;i++)
 30406a4:	e025c615 	stw	zero,-26856(fp)
 30406a8:	00000f06 	br	30406e8 <main+0x2f8>
      {
        lcd_write_data(LCD_BASE,text[0][i]);
 30406ac:	e0e5c617 	ldw	r3,-26856(fp)
 30406b0:	e0bff404 	addi	r2,fp,-48
 30406b4:	10c5883a 	add	r2,r2,r3
 30406b8:	10800003 	ldbu	r2,0(r2)
 30406bc:	10c03fcc 	andi	r3,r2,255
 30406c0:	18c0201c 	xori	r3,r3,128
 30406c4:	18ffe004 	addi	r3,r3,-128
 30406c8:	00804034 	movhi	r2,256
 30406cc:	10803a04 	addi	r2,r2,232
 30406d0:	10c00035 	stwio	r3,0(r2)
        usleep(100);
 30406d4:	01001904 	movi	r4,100
 30406d8:	3044d780 	call	3044d78 <usleep>
      usleep(100);  
      lcd_write_data(LCD_BASE,(char)(num_music/10+0x30));   // display the number of wav files
      usleep(100);  
      lcd_write_data(LCD_BASE,(char)(num_music%10+0x30));
      usleep(100);
      for(i=0;i<5;i++)
 30406dc:	e0a5c617 	ldw	r2,-26856(fp)
 30406e0:	10800044 	addi	r2,r2,1
 30406e4:	e0a5c615 	stw	r2,-26856(fp)
 30406e8:	e0a5c617 	ldw	r2,-26856(fp)
 30406ec:	10800170 	cmpltui	r2,r2,5
 30406f0:	103fee1e 	bne	r2,zero,30406ac <main+0x2bc>
      {
        lcd_write_data(LCD_BASE,text[0][i]);
        usleep(100);
      }
      lcd_write_command(LCD_BASE,0xc0);
 30406f4:	00c04034 	movhi	r3,256
 30406f8:	18c03804 	addi	r3,r3,224
 30406fc:	00803004 	movi	r2,192
 3040700:	18800035 	stwio	r2,0(r3)
      usleep(100);  
 3040704:	01001904 	movi	r4,100
 3040708:	3044d780 	call	3044d78 <usleep>
      lcd_write_data(LCD_BASE,(char)(num_lyric/10+0x30));  // display the number of lysic files
 304070c:	e125dc17 	ldw	r4,-26768(fp)
 3040710:	01400284 	movi	r5,10
 3040714:	30449600 	call	3044960 <__udivsi3>
 3040718:	10800c04 	addi	r2,r2,48
 304071c:	10c03fcc 	andi	r3,r2,255
 3040720:	18c0201c 	xori	r3,r3,128
 3040724:	18ffe004 	addi	r3,r3,-128
 3040728:	00804034 	movhi	r2,256
 304072c:	10803a04 	addi	r2,r2,232
 3040730:	10c00035 	stwio	r3,0(r2)
      usleep(100);  
 3040734:	01001904 	movi	r4,100
 3040738:	3044d780 	call	3044d78 <usleep>
      lcd_write_data(LCD_BASE,(char)(num_lyric%10+0x30));
 304073c:	e125dc17 	ldw	r4,-26768(fp)
 3040740:	01400284 	movi	r5,10
 3040744:	30449680 	call	3044968 <__umodsi3>
 3040748:	10800c04 	addi	r2,r2,48
 304074c:	10c03fcc 	andi	r3,r2,255
 3040750:	18c0201c 	xori	r3,r3,128
 3040754:	18ffe004 	addi	r3,r3,-128
 3040758:	00804034 	movhi	r2,256
 304075c:	10803a04 	addi	r2,r2,232
 3040760:	10c00035 	stwio	r3,0(r2)
      usleep(100);
 3040764:	01001904 	movi	r4,100
 3040768:	3044d780 	call	3044d78 <usleep>
      for(i=0;i<6;i++)
 304076c:	e025c615 	stw	zero,-26856(fp)
 3040770:	00000f06 	br	30407b0 <main+0x3c0>
      {
        lcd_write_data(LCD_BASE,text[1][i]);
 3040774:	e0e5c617 	ldw	r3,-26856(fp)
 3040778:	e0bff804 	addi	r2,fp,-32
 304077c:	10c5883a 	add	r2,r2,r3
 3040780:	10800003 	ldbu	r2,0(r2)
 3040784:	10c03fcc 	andi	r3,r2,255
 3040788:	18c0201c 	xori	r3,r3,128
 304078c:	18ffe004 	addi	r3,r3,-128
 3040790:	00804034 	movhi	r2,256
 3040794:	10803a04 	addi	r2,r2,232
 3040798:	10c00035 	stwio	r3,0(r2)
         usleep(100);
 304079c:	01001904 	movi	r4,100
 30407a0:	3044d780 	call	3044d78 <usleep>
      usleep(100);  
      lcd_write_data(LCD_BASE,(char)(num_lyric/10+0x30));  // display the number of lysic files
      usleep(100);  
      lcd_write_data(LCD_BASE,(char)(num_lyric%10+0x30));
      usleep(100);
      for(i=0;i<6;i++)
 30407a4:	e0a5c617 	ldw	r2,-26856(fp)
 30407a8:	10800044 	addi	r2,r2,1
 30407ac:	e0a5c615 	stw	r2,-26856(fp)
 30407b0:	e0a5c617 	ldw	r2,-26856(fp)
 30407b4:	108001b0 	cmpltui	r2,r2,6
 30407b8:	103fee1e 	bne	r2,zero,3040774 <main+0x384>
      {
        lcd_write_data(LCD_BASE,text[1][i]);
         usleep(100);
      }
     usleep(1000000);
 30407bc:	010003f4 	movhi	r4,15
 30407c0:	21109004 	addi	r4,r4,16960
 30407c4:	3044d780 	call	3044d78 <usleep>
     
     while(1)
     {
        show_name(music[song_num].m_name);
 30407c8:	e0a5c317 	ldw	r2,-26868(fp)
 30407cc:	e0f21704 	addi	r3,fp,-14244
 30407d0:	10800e24 	muli	r2,r2,56
 30407d4:	1889883a 	add	r4,r3,r2
 30407d8:	30445380 	call	3044538 <show_name>
        key=IORD(KEY_BASE,0);
 30407dc:	00804034 	movhi	r2,256
 30407e0:	10801804 	addi	r2,r2,96
 30407e4:	10800037 	ldwio	r2,0(r2)
 30407e8:	e0a5c015 	stw	r2,-26880(fp)
        key=~key&0x0e; 
 30407ec:	e0a5c017 	ldw	r2,-26880(fp)
 30407f0:	0084303a 	nor	r2,zero,r2
 30407f4:	1080038c 	andi	r2,r2,14
 30407f8:	e0a5c015 	stw	r2,-26880(fp)
        if(key)
 30407fc:	e0a5c017 	ldw	r2,-26880(fp)
 3040800:	1005003a 	cmpeq	r2,r2,zero
 3040804:	10001f1e 	bne	r2,zero,3040884 <main+0x494>
        {   
           key2=key&0x02;
 3040808:	e0a5c017 	ldw	r2,-26880(fp)
 304080c:	1080008c 	andi	r2,r2,2
 3040810:	e0a5bf15 	stw	r2,-26884(fp)
           key3=key&0x04;
 3040814:	e0a5c017 	ldw	r2,-26880(fp)
 3040818:	1080010c 	andi	r2,r2,4
 304081c:	e0a5be15 	stw	r2,-26888(fp)
           key4=key&0x08;
 3040820:	e0a5c017 	ldw	r2,-26880(fp)
 3040824:	1080020c 	andi	r2,r2,8
 3040828:	e0a5bd15 	stw	r2,-26892(fp)
           if(key2)
 304082c:	e0a5bf17 	ldw	r2,-26884(fp)
 3040830:	1004c03a 	cmpne	r2,r2,zero
 3040834:	1000521e 	bne	r2,zero,3040980 <main+0x590>
             break;
           else if(key3)
 3040838:	e0a5be17 	ldw	r2,-26888(fp)
 304083c:	1005003a 	cmpeq	r2,r2,zero
 3040840:	1000061e 	bne	r2,zero,304085c <main+0x46c>
           {  
             song_num=(song_num+1)%num_music;           // next song
 3040844:	e0a5c317 	ldw	r2,-26868(fp)
 3040848:	11000044 	addi	r4,r2,1
 304084c:	e165dd17 	ldw	r5,-26764(fp)
 3040850:	30449680 	call	3044968 <__umodsi3>
 3040854:	e0a5c315 	stw	r2,-26868(fp)
 3040858:	00000a06 	br	3040884 <main+0x494>
           }
           else if(key4)
 304085c:	e0a5bd17 	ldw	r2,-26892(fp)
 3040860:	1005003a 	cmpeq	r2,r2,zero
 3040864:	1000071e 	bne	r2,zero,3040884 <main+0x494>
           {
             song_num=(song_num+num_music-1)%num_music;  // previous song
 3040868:	e0e5dd17 	ldw	r3,-26764(fp)
 304086c:	e0a5c317 	ldw	r2,-26868(fp)
 3040870:	1885883a 	add	r2,r3,r2
 3040874:	113fffc4 	addi	r4,r2,-1
 3040878:	e165dd17 	ldw	r5,-26764(fp)
 304087c:	30449680 	call	3044968 <__umodsi3>
 3040880:	e0a5c315 	stw	r2,-26868(fp)
           }
           else
           ;
        }
         time(0,song_num+1,num_music);    
 3040884:	e0a5c317 	ldw	r2,-26868(fp)
 3040888:	10800044 	addi	r2,r2,1
 304088c:	100b883a 	mov	r5,r2
 3040890:	e0a5dd17 	ldw	r2,-26764(fp)
 3040894:	100d883a 	mov	r6,r2
 3040898:	0009883a 	mov	r4,zero
 304089c:	30446d80 	call	30446d8 <time>
     }
 30408a0:	003fc906 	br	30407c8 <main+0x3d8>
    }
    
    else if(sw[0])       {
 30408a4:	e0a5c717 	ldw	r2,-26852(fp)
 30408a8:	1005003a 	cmpeq	r2,r2,zero
 30408ac:	10000d1e 	bne	r2,zero,30408e4 <main+0x4f4>
      song_num=(song_num+1)%num_music;      // continuous 
 30408b0:	e0a5c317 	ldw	r2,-26868(fp)
 30408b4:	11000044 	addi	r4,r2,1
 30408b8:	e165dd17 	ldw	r5,-26764(fp)
 30408bc:	30449680 	call	3044968 <__umodsi3>
 30408c0:	e0a5c315 	stw	r2,-26868(fp)
      time(0,song_num+1,num_music); 
 30408c4:	e0a5c317 	ldw	r2,-26868(fp)
 30408c8:	10800044 	addi	r2,r2,1
 30408cc:	100b883a 	mov	r5,r2
 30408d0:	e0a5dd17 	ldw	r2,-26764(fp)
 30408d4:	100d883a 	mov	r6,r2
 30408d8:	0009883a 	mov	r4,zero
 30408dc:	30446d80 	call	30446d8 <time>
 30408e0:	00002706 	br	3040980 <main+0x590>
    }
    else if(sw[1])          {
 30408e4:	e0a5c817 	ldw	r2,-26848(fp)
 30408e8:	1005003a 	cmpeq	r2,r2,zero
 30408ec:	1000081e 	bne	r2,zero,3040910 <main+0x520>
      song_num+=0;
      time(0,song_num+1,num_music);        // repeat the song
 30408f0:	e0a5c317 	ldw	r2,-26868(fp)
 30408f4:	10800044 	addi	r2,r2,1
 30408f8:	100b883a 	mov	r5,r2
 30408fc:	e0a5dd17 	ldw	r2,-26764(fp)
 3040900:	100d883a 	mov	r6,r2
 3040904:	0009883a 	mov	r4,zero
 3040908:	30446d80 	call	30446d8 <time>
 304090c:	00001c06 	br	3040980 <main+0x590>
    }
    else if(sw[2])
 3040910:	e0a5c917 	ldw	r2,-26844(fp)
 3040914:	1005003a 	cmpeq	r2,r2,zero
 3040918:	1000191e 	bne	r2,zero,3040980 <main+0x590>
    {
      song_num=(num_lyrics+temporary1+temporary2+music[song_num].m_name[0])%num_music;  // random play
 304091c:	e0e5ba17 	ldw	r3,-26904(fp)
 3040920:	e0a5c517 	ldw	r2,-26860(fp)
 3040924:	1887883a 	add	r3,r3,r2
 3040928:	e0a5c417 	ldw	r2,-26864(fp)
 304092c:	1887883a 	add	r3,r3,r2
 3040930:	e0a5c317 	ldw	r2,-26868(fp)
 3040934:	10800e24 	muli	r2,r2,56
 3040938:	e125b204 	addi	r4,fp,-26936
 304093c:	1105883a 	add	r2,r2,r4
 3040940:	108c6504 	addi	r2,r2,12692
 3040944:	10800003 	ldbu	r2,0(r2)
 3040948:	10803fcc 	andi	r2,r2,255
 304094c:	1080201c 	xori	r2,r2,128
 3040950:	10bfe004 	addi	r2,r2,-128
 3040954:	1889883a 	add	r4,r3,r2
 3040958:	e165dd17 	ldw	r5,-26764(fp)
 304095c:	30449680 	call	3044968 <__umodsi3>
 3040960:	e0a5c315 	stw	r2,-26868(fp)
      time(0,song_num+1,num_music);   
 3040964:	e0a5c317 	ldw	r2,-26868(fp)
 3040968:	10800044 	addi	r2,r2,1
 304096c:	100b883a 	mov	r5,r2
 3040970:	e0a5dd17 	ldw	r2,-26764(fp)
 3040974:	100d883a 	mov	r6,r2
 3040978:	0009883a 	mov	r4,zero
 304097c:	30446d80 	call	30446d8 <time>
    }    
    LCD_Init();    
 3040980:	30402000 	call	3040200 <LCD_Init>
    LCD_Show_Text(wait);
 3040984:	e13ffc04 	addi	r4,fp,-16
 3040988:	304029c0 	call	304029c <LCD_Show_Text>
    num_lyrics=read_lyrics(music[song_num].m_name,lyric,&lyrics,num_lyric,&clupsec_num, &data_sector); //lyrics
 304098c:	e0a5c317 	ldw	r2,-26868(fp)
 3040990:	e0f21704 	addi	r3,fp,-14244
 3040994:	10800e24 	muli	r2,r2,56
 3040998:	1889883a 	add	r4,r3,r2
 304099c:	e0a5dc17 	ldw	r2,-26768(fp)
 30409a0:	100f883a 	mov	r7,r2
 30409a4:	e0a5d804 	addi	r2,fp,-26784
 30409a8:	e0e5d904 	addi	r3,fp,-26780
 30409ac:	e173bb04 	addi	r5,fp,-12564
 30409b0:	e1b55f04 	addi	r6,fp,-10884
 30409b4:	d8800015 	stw	r2,0(sp)
 30409b8:	d8c00115 	stw	r3,4(sp)
 30409bc:	30423f40 	call	30423f4 <read_lyrics>
 30409c0:	e0a5ba15 	stw	r2,-26904(fp)
    cl[0]=music[song_num].cluster;
 30409c4:	e0a5c317 	ldw	r2,-26868(fp)
 30409c8:	10800e24 	muli	r2,r2,56
 30409cc:	e0e5b204 	addi	r3,fp,-26936
 30409d0:	10c5883a 	add	r2,r2,r3
 30409d4:	108c7204 	addi	r2,r2,12744
 30409d8:	10800017 	ldw	r2,0(r2)
 30409dc:	e0a5df15 	stw	r2,-26756(fp)
    find_cluster(song_num,fat_addr,cl);
 30409e0:	e125c317 	ldw	r4,-26868(fp)
 30409e4:	e0a5de17 	ldw	r2,-26760(fp)
 30409e8:	100b883a 	mov	r5,r2
 30409ec:	e1a5df04 	addi	r6,fp,-26756
 30409f0:	30421dc0 	call	30421dc <find_cluster>
    for(i=0;cl[i]>1;i++);
 30409f4:	e025c615 	stw	zero,-26856(fp)
 30409f8:	00000306 	br	3040a08 <main+0x618>
 30409fc:	e0a5c617 	ldw	r2,-26856(fp)
 3040a00:	10800044 	addi	r2,r2,1
 3040a04:	e0a5c615 	stw	r2,-26856(fp)
 3040a08:	e0a5c617 	ldw	r2,-26856(fp)
 3040a0c:	1085883a 	add	r2,r2,r2
 3040a10:	1085883a 	add	r2,r2,r2
 3040a14:	e125b204 	addi	r4,fp,-26936
 3040a18:	1105883a 	add	r2,r2,r4
 3040a1c:	10802d04 	addi	r2,r2,180
 3040a20:	10800017 	ldw	r2,0(r2)
 3040a24:	108000a8 	cmpgeui	r2,r2,2
 3040a28:	103ff41e 	bne	r2,zero,30409fc <main+0x60c>
    cluster_num=i;  
 3040a2c:	e0a5c617 	ldw	r2,-26856(fp)
 3040a30:	e0a5b615 	stw	r2,-26920(fp)
    
    show_name(music[song_num].m_name);   // show the name of the song
 3040a34:	e0a5c317 	ldw	r2,-26868(fp)
 3040a38:	e0f21704 	addi	r3,fp,-14244
 3040a3c:	10800e24 	muli	r2,r2,56
 3040a40:	1889883a 	add	r4,r3,r2
 3040a44:	30445380 	call	3044538 <show_name>
    for(song_position=0;song_position<cluster_num;song_position++)
 3040a48:	e025c215 	stw	zero,-26872(fp)
 3040a4c:	00014e06 	br	3040f88 <main+0xb98>
    {  
      base=(cl[song_position]-2)*clupsec_num+data_sector;
 3040a50:	e0a5c217 	ldw	r2,-26872(fp)
 3040a54:	1085883a 	add	r2,r2,r2
 3040a58:	1085883a 	add	r2,r2,r2
 3040a5c:	e0e5b204 	addi	r3,fp,-26936
 3040a60:	10c5883a 	add	r2,r2,r3
 3040a64:	10802d04 	addi	r2,r2,180
 3040a68:	10800017 	ldw	r2,0(r2)
 3040a6c:	10ffff84 	addi	r3,r2,-2
 3040a70:	e0a5d817 	ldw	r2,-26784(fp)
 3040a74:	1887383a 	mul	r3,r3,r2
 3040a78:	e0a5d917 	ldw	r2,-26780(fp)
 3040a7c:	1885883a 	add	r2,r3,r2
 3040a80:	e0a5b715 	stw	r2,-26916(fp)
      j_base=song_position*clupsec_num-base;
 3040a84:	e0e5d817 	ldw	r3,-26784(fp)
 3040a88:	e0a5c217 	ldw	r2,-26872(fp)
 3040a8c:	1887383a 	mul	r3,r3,r2
 3040a90:	e0a5b717 	ldw	r2,-26916(fp)
 3040a94:	1885c83a 	sub	r2,r3,r2
 3040a98:	e0a5b815 	stw	r2,-26912(fp)
      sw1=IORD(SW_BASE,0);
 3040a9c:	00804034 	movhi	r2,256
 3040aa0:	10801c04 	addi	r2,r2,112
 3040aa4:	10800037 	ldwio	r2,0(r2)
 3040aa8:	e0a5bb15 	stw	r2,-26900(fp)
      sw[4]=sw1&0x10;
 3040aac:	e0a5bb17 	ldw	r2,-26900(fp)
 3040ab0:	1080040c 	andi	r2,r2,16
 3040ab4:	e0a5cb15 	stw	r2,-26836(fp)
      sw[5]=sw1&0x20; 
 3040ab8:	e0a5bb17 	ldw	r2,-26900(fp)
 3040abc:	1080080c 	andi	r2,r2,32
 3040ac0:	e0a5cc15 	stw	r2,-26832(fp)
      sw[6]=sw1&0x40;
 3040ac4:	e0a5bb17 	ldw	r2,-26900(fp)
 3040ac8:	1080100c 	andi	r2,r2,64
 3040acc:	e0a5cd15 	stw	r2,-26828(fp)
      
      back[1]=sw1&0x20000;
 3040ad0:	e0a5bb17 	ldw	r2,-26900(fp)
 3040ad4:	108000ac 	andhi	r2,r2,2
 3040ad8:	e0a5db15 	stw	r2,-26772(fp)
      if(back[1]!=back[0])
 3040adc:	e0e5db17 	ldw	r3,-26772(fp)
 3040ae0:	e0a5da17 	ldw	r2,-26776(fp)
 3040ae4:	18800326 	beq	r3,r2,3040af4 <main+0x704>
      {
        back[0]=back[1];
 3040ae8:	e0a5db17 	ldw	r2,-26772(fp)
 3040aec:	e0a5da15 	stw	r2,-26776(fp)
        break;
 3040af0:	003ea006 	br	3040574 <main+0x184>
      } 
      if(sw[4])
 3040af4:	e0a5cb17 	ldw	r2,-26836(fp)
 3040af8:	1005003a 	cmpeq	r2,r2,zero
 3040afc:	1000121e 	bne	r2,zero,3040b48 <main+0x758>
      {
         song_position=(song_position+4)%cluster_num;
 3040b00:	e0a5c217 	ldw	r2,-26872(fp)
 3040b04:	11000104 	addi	r4,r2,4
 3040b08:	e165b617 	ldw	r5,-26920(fp)
 3040b0c:	30449680 	call	3044968 <__umodsi3>
 3040b10:	e0a5c215 	stw	r2,-26872(fp)
         time(song_position*clupsec_num,song_num+1,num_music);    // fast forward
 3040b14:	e0e5d817 	ldw	r3,-26784(fp)
 3040b18:	e0a5c217 	ldw	r2,-26872(fp)
 3040b1c:	1885383a 	mul	r2,r3,r2
 3040b20:	1009883a 	mov	r4,r2
 3040b24:	e0a5c317 	ldw	r2,-26868(fp)
 3040b28:	10800044 	addi	r2,r2,1
 3040b2c:	100b883a 	mov	r5,r2
 3040b30:	e0a5dd17 	ldw	r2,-26764(fp)
 3040b34:	100d883a 	mov	r6,r2
 3040b38:	30446d80 	call	30446d8 <time>
         usleep(20000);
 3040b3c:	01138804 	movi	r4,20000
 3040b40:	3044d780 	call	3044d78 <usleep>
         continue;        
 3040b44:	00010d06 	br	3040f7c <main+0xb8c>
      }
      else if(sw[6])
 3040b48:	e0a5cd17 	ldw	r2,-26828(fp)
 3040b4c:	1005003a 	cmpeq	r2,r2,zero
 3040b50:	1000141e 	bne	r2,zero,3040ba4 <main+0x7b4>
      {
         song_position=(song_position+cluster_num-4)%cluster_num;
 3040b54:	e0e5c217 	ldw	r3,-26872(fp)
 3040b58:	e0a5b617 	ldw	r2,-26920(fp)
 3040b5c:	1885883a 	add	r2,r3,r2
 3040b60:	113fff04 	addi	r4,r2,-4
 3040b64:	e165b617 	ldw	r5,-26920(fp)
 3040b68:	30449680 	call	3044968 <__umodsi3>
 3040b6c:	e0a5c215 	stw	r2,-26872(fp)
         time(song_position*clupsec_num,song_num+1,num_music);   // pause
 3040b70:	e0e5d817 	ldw	r3,-26784(fp)
 3040b74:	e0a5c217 	ldw	r2,-26872(fp)
 3040b78:	1885383a 	mul	r2,r3,r2
 3040b7c:	1009883a 	mov	r4,r2
 3040b80:	e0a5c317 	ldw	r2,-26868(fp)
 3040b84:	10800044 	addi	r2,r2,1
 3040b88:	100b883a 	mov	r5,r2
 3040b8c:	e0a5dd17 	ldw	r2,-26764(fp)
 3040b90:	100d883a 	mov	r6,r2
 3040b94:	30446d80 	call	30446d8 <time>
         usleep(20000);
 3040b98:	01138804 	movi	r4,20000
 3040b9c:	3044d780 	call	3044d78 <usleep>
         continue;
 3040ba0:	0000f606 	br	3040f7c <main+0xb8c>
      }    
      else if(sw[5])
 3040ba4:	e0a5cc17 	ldw	r2,-26832(fp)
 3040ba8:	1005003a 	cmpeq	r2,r2,zero
 3040bac:	10000a1e 	bne	r2,zero,3040bd8 <main+0x7e8>
      {
         song_position=(song_position+cluster_num-1)%cluster_num;  // reverse
 3040bb0:	e0e5c217 	ldw	r3,-26872(fp)
 3040bb4:	e0a5b617 	ldw	r2,-26920(fp)
 3040bb8:	1885883a 	add	r2,r3,r2
 3040bbc:	113fffc4 	addi	r4,r2,-1
 3040bc0:	e165b617 	ldw	r5,-26920(fp)
 3040bc4:	30449680 	call	3044968 <__umodsi3>
 3040bc8:	e0a5c215 	stw	r2,-26872(fp)
         usleep(20000);
 3040bcc:	01138804 	movi	r4,20000
 3040bd0:	3044d780 	call	3044d78 <usleep>
         continue;
 3040bd4:	0000e906 	br	3040f7c <main+0xb8c>
      }   
      
      for(j=base;j<base+clupsec_num;j++) //j is the section in the cluster
 3040bd8:	e0a5b717 	ldw	r2,-26916(fp)
 3040bdc:	e0a5b515 	stw	r2,-26924(fp)
 3040be0:	0000e106 	br	3040f68 <main+0xb78>
      {      
        SD_read_lba(Buffer,j,1);    // read function from SD card controller.c
 3040be4:	e1319704 	addi	r4,fp,-14756
 3040be8:	e165b517 	ldw	r5,-26924(fp)
 3040bec:	01800044 	movi	r6,1
 3040bf0:	30439440 	call	3043944 <SD_read_lba>
        i=0;
 3040bf4:	e025c615 	stw	zero,-26856(fp)
        while(i<512)
 3040bf8:	00001a06 	br	3040c64 <main+0x874>
        {
          if(!IORD(AUDIO_BASE,0))
 3040bfc:	0080c234 	movhi	r2,776
 3040c00:	10840004 	addi	r2,r2,4096
 3040c04:	10800037 	ldwio	r2,0(r2)
 3040c08:	1004c03a 	cmpne	r2,r2,zero
 3040c0c:	1000151e 	bne	r2,zero,3040c64 <main+0x874>
          {
            temporary1=((Buffer[i+1]<<8)|Buffer[i]);   // read from SD card
 3040c10:	e0a5c617 	ldw	r2,-26856(fp)
 3040c14:	10c00044 	addi	r3,r2,1
 3040c18:	e0b19704 	addi	r2,fp,-14756
 3040c1c:	10c5883a 	add	r2,r2,r3
 3040c20:	10800003 	ldbu	r2,0(r2)
 3040c24:	10803fcc 	andi	r2,r2,255
 3040c28:	1008923a 	slli	r4,r2,8
 3040c2c:	e0e5c617 	ldw	r3,-26856(fp)
 3040c30:	e0b19704 	addi	r2,fp,-14756
 3040c34:	10c5883a 	add	r2,r2,r3
 3040c38:	10800003 	ldbu	r2,0(r2)
 3040c3c:	10803fcc 	andi	r2,r2,255
 3040c40:	2084b03a 	or	r2,r4,r2
 3040c44:	e0a5c515 	stw	r2,-26860(fp)
           
            IOWR(AUDIO_BASE,0,temporary1);
 3040c48:	e0e5c517 	ldw	r3,-26860(fp)
 3040c4c:	0080c234 	movhi	r2,776
 3040c50:	10840004 	addi	r2,r2,4096
 3040c54:	10c00035 	stwio	r3,0(r2)
            
            i+=2;            
 3040c58:	e0a5c617 	ldw	r2,-26856(fp)
 3040c5c:	10800084 	addi	r2,r2,2
 3040c60:	e0a5c615 	stw	r2,-26856(fp)
      
      for(j=base;j<base+clupsec_num;j++) //j is the section in the cluster
      {      
        SD_read_lba(Buffer,j,1);    // read function from SD card controller.c
        i=0;
        while(i<512)
 3040c64:	e0a5c617 	ldw	r2,-26856(fp)
 3040c68:	10808030 	cmpltui	r2,r2,512
 3040c6c:	103fe31e 	bne	r2,zero,3040bfc <main+0x80c>
            
            i+=2;            
          }
        }

        if(j%32==0)
 3040c70:	e0a5b517 	ldw	r2,-26924(fp)
 3040c74:	108007cc 	andi	r2,r2,31
 3040c78:	1004c03a 	cmpne	r2,r2,zero
 3040c7c:	10001b1e 	bne	r2,zero,3040cec <main+0x8fc>
        {
            unsigned int x=0;
 3040c80:	e025b415 	stw	zero,-26928(fp)
            unsigned int y=0xffff;
 3040c84:	00bfffd4 	movui	r2,65535
 3040c88:	e0a5b315 	stw	r2,-26932(fp)
            unsigned int z = temporary1;
 3040c8c:	e0a5c517 	ldw	r2,-26860(fp)
 3040c90:	e0a5b215 	stw	r2,-26936(fp)
            do
            {
                x++;
 3040c94:	e0a5b417 	ldw	r2,-26928(fp)
 3040c98:	10800044 	addi	r2,r2,1
 3040c9c:	e0a5b415 	stw	r2,-26928(fp)
                z=z<<1;
 3040ca0:	e0a5b217 	ldw	r2,-26936(fp)
 3040ca4:	1085883a 	add	r2,r2,r2
 3040ca8:	e0a5b215 	stw	r2,-26936(fp)
            }while((z & 0x8000)==0);
 3040cac:	e0a5b217 	ldw	r2,-26936(fp)
 3040cb0:	10a0000c 	andi	r2,r2,32768
 3040cb4:	1005003a 	cmpeq	r2,r2,zero
 3040cb8:	103ff61e 	bne	r2,zero,3040c94 <main+0x8a4>
            y=y>>x;
 3040cbc:	e0e5b417 	ldw	r3,-26928(fp)
 3040cc0:	e0a5b317 	ldw	r2,-26932(fp)
 3040cc4:	10c4d83a 	srl	r2,r2,r3
 3040cc8:	e0a5b315 	stw	r2,-26932(fp)
            IOWR(LEDR_BASE,0,y);
 3040ccc:	e0e5b317 	ldw	r3,-26932(fp)
 3040cd0:	00804034 	movhi	r2,256
 3040cd4:	10802404 	addi	r2,r2,144
 3040cd8:	10c00035 	stwio	r3,0(r2)
            IOWR(LEDG_BASE,0,z);
 3040cdc:	e0e5b217 	ldw	r3,-26936(fp)
 3040ce0:	00804034 	movhi	r2,256
 3040ce4:	10802004 	addi	r2,r2,128
 3040ce8:	10c00035 	stwio	r3,0(r2)
        }
/********************************************************************/

        time(j+j_base,song_num+1,num_music); //display time
 3040cec:	e0e5b517 	ldw	r3,-26924(fp)
 3040cf0:	e0a5b817 	ldw	r2,-26912(fp)
 3040cf4:	1885883a 	add	r2,r3,r2
 3040cf8:	1009883a 	mov	r4,r2
 3040cfc:	e0a5c317 	ldw	r2,-26868(fp)
 3040d00:	10800044 	addi	r2,r2,1
 3040d04:	100b883a 	mov	r5,r2
 3040d08:	e0a5dd17 	ldw	r2,-26764(fp)
 3040d0c:	100d883a 	mov	r6,r2
 3040d10:	30446d80 	call	30446d8 <time>

        for(k=0;k<num_lyrics;k++)            //display lyric
 3040d14:	e025c115 	stw	zero,-26876(fp)
 3040d18:	00008d06 	br	3040f50 <main+0xb60>
        {       
          time_base=j_base-lyrics.time[k]-2;       
 3040d1c:	e0a5c117 	ldw	r2,-26876(fp)
 3040d20:	1085883a 	add	r2,r2,r2
 3040d24:	1085883a 	add	r2,r2,r2
 3040d28:	e125b204 	addi	r4,fp,-26936
 3040d2c:	1105883a 	add	r2,r2,r4
 3040d30:	108fad04 	addi	r2,r2,16052
 3040d34:	10800017 	ldw	r2,0(r2)
 3040d38:	1007883a 	mov	r3,r2
 3040d3c:	e0a5b817 	ldw	r2,-26912(fp)
 3040d40:	10c5c83a 	sub	r2,r2,r3
 3040d44:	10bfff84 	addi	r2,r2,-2
 3040d48:	e0a5b915 	stw	r2,-26908(fp)
          if(j+j_base==lyrics.time[k])   
 3040d4c:	e0e5b517 	ldw	r3,-26924(fp)
 3040d50:	e0a5b817 	ldw	r2,-26912(fp)
 3040d54:	1887883a 	add	r3,r3,r2
 3040d58:	e0a5c117 	ldw	r2,-26876(fp)
 3040d5c:	1085883a 	add	r2,r2,r2
 3040d60:	1085883a 	add	r2,r2,r2
 3040d64:	e125b204 	addi	r4,fp,-26936
 3040d68:	1105883a 	add	r2,r2,r4
 3040d6c:	108fad04 	addi	r2,r2,16052
 3040d70:	10800017 	ldw	r2,0(r2)
 3040d74:	1880051e 	bne	r3,r2,3040d8c <main+0x99c>
          {    
            lcd_write_command(LCD_BASE,0x80);
 3040d78:	00c04034 	movhi	r3,256
 3040d7c:	18c03804 	addi	r3,r3,224
 3040d80:	00802004 	movi	r2,128
 3040d84:	18800035 	stwio	r2,0(r3)
            break;
 3040d88:	00007406 	br	3040f5c <main+0xb6c>
          }
          else if(j+j_base==lyrics.time[k]+36)
 3040d8c:	e0e5b517 	ldw	r3,-26924(fp)
 3040d90:	e0a5b817 	ldw	r2,-26912(fp)
 3040d94:	1887883a 	add	r3,r3,r2
 3040d98:	e0a5c117 	ldw	r2,-26876(fp)
 3040d9c:	1085883a 	add	r2,r2,r2
 3040da0:	1085883a 	add	r2,r2,r2
 3040da4:	e125b204 	addi	r4,fp,-26936
 3040da8:	1105883a 	add	r2,r2,r4
 3040dac:	108fad04 	addi	r2,r2,16052
 3040db0:	10800017 	ldw	r2,0(r2)
 3040db4:	10800904 	addi	r2,r2,36
 3040db8:	1880051e 	bne	r3,r2,3040dd0 <main+0x9e0>
          {
            lcd_write_command(LCD_BASE,0xc0);
 3040dbc:	00c04034 	movhi	r3,256
 3040dc0:	18c03804 	addi	r3,r3,224
 3040dc4:	00803004 	movi	r2,192
 3040dc8:	18800035 	stwio	r2,0(r3)
            break;          
 3040dcc:	00006306 	br	3040f5c <main+0xb6c>
          }
          
          else if(j%2==0&&(j+j_base>=lyrics.time[k]+2)&&(j+j_base<=lyrics.time[k]+34))
 3040dd0:	e0a5b517 	ldw	r2,-26924(fp)
 3040dd4:	1080004c 	andi	r2,r2,1
 3040dd8:	1004c03a 	cmpne	r2,r2,zero
 3040ddc:	10002a1e 	bne	r2,zero,3040e88 <main+0xa98>
 3040de0:	e0e5b517 	ldw	r3,-26924(fp)
 3040de4:	e0a5b817 	ldw	r2,-26912(fp)
 3040de8:	1887883a 	add	r3,r3,r2
 3040dec:	e0a5c117 	ldw	r2,-26876(fp)
 3040df0:	1085883a 	add	r2,r2,r2
 3040df4:	1085883a 	add	r2,r2,r2
 3040df8:	e125b204 	addi	r4,fp,-26936
 3040dfc:	1105883a 	add	r2,r2,r4
 3040e00:	108fad04 	addi	r2,r2,16052
 3040e04:	10800017 	ldw	r2,0(r2)
 3040e08:	10800084 	addi	r2,r2,2
 3040e0c:	18801e36 	bltu	r3,r2,3040e88 <main+0xa98>
 3040e10:	e0e5b517 	ldw	r3,-26924(fp)
 3040e14:	e0a5b817 	ldw	r2,-26912(fp)
 3040e18:	1887883a 	add	r3,r3,r2
 3040e1c:	e0a5c117 	ldw	r2,-26876(fp)
 3040e20:	1085883a 	add	r2,r2,r2
 3040e24:	1085883a 	add	r2,r2,r2
 3040e28:	e125b204 	addi	r4,fp,-26936
 3040e2c:	1105883a 	add	r2,r2,r4
 3040e30:	108fad04 	addi	r2,r2,16052
 3040e34:	10800017 	ldw	r2,0(r2)
 3040e38:	10800884 	addi	r2,r2,34
 3040e3c:	10c01236 	bltu	r2,r3,3040e88 <main+0xa98>
          {
              lcd_write_data(LCD_BASE,lyrics.text[k][(j+time_base)/2]);
 3040e40:	e125c117 	ldw	r4,-26876(fp)
 3040e44:	e0e5b517 	ldw	r3,-26924(fp)
 3040e48:	e0a5b917 	ldw	r2,-26908(fp)
 3040e4c:	1885883a 	add	r2,r3,r2
 3040e50:	1006d07a 	srli	r3,r2,1
 3040e54:	2004917a 	slli	r2,r4,5
 3040e58:	e125b204 	addi	r4,fp,-26936
 3040e5c:	1105883a 	add	r2,r2,r4
 3040e60:	10c5883a 	add	r2,r2,r3
 3040e64:	1090d904 	addi	r2,r2,17252
 3040e68:	10800003 	ldbu	r2,0(r2)
 3040e6c:	10c03fcc 	andi	r3,r2,255
 3040e70:	18c0201c 	xori	r3,r3,128
 3040e74:	18ffe004 	addi	r3,r3,-128
 3040e78:	00804034 	movhi	r2,256
 3040e7c:	10803a04 	addi	r2,r2,232
 3040e80:	10c00035 	stwio	r3,0(r2)
              break;             
 3040e84:	00003506 	br	3040f5c <main+0xb6c>
          }          
          else if(j%2==0&&(j+j_base>=lyrics.time[k]+38)&&(j+j_base<lyrics.time[k]+70))
 3040e88:	e0a5b517 	ldw	r2,-26924(fp)
 3040e8c:	1080004c 	andi	r2,r2,1
 3040e90:	1004c03a 	cmpne	r2,r2,zero
 3040e94:	10002b1e 	bne	r2,zero,3040f44 <main+0xb54>
 3040e98:	e0e5b517 	ldw	r3,-26924(fp)
 3040e9c:	e0a5b817 	ldw	r2,-26912(fp)
 3040ea0:	1887883a 	add	r3,r3,r2
 3040ea4:	e0a5c117 	ldw	r2,-26876(fp)
 3040ea8:	1085883a 	add	r2,r2,r2
 3040eac:	1085883a 	add	r2,r2,r2
 3040eb0:	e125b204 	addi	r4,fp,-26936
 3040eb4:	1105883a 	add	r2,r2,r4
 3040eb8:	108fad04 	addi	r2,r2,16052
 3040ebc:	10800017 	ldw	r2,0(r2)
 3040ec0:	10800984 	addi	r2,r2,38
 3040ec4:	18801f36 	bltu	r3,r2,3040f44 <main+0xb54>
 3040ec8:	e0e5b517 	ldw	r3,-26924(fp)
 3040ecc:	e0a5b817 	ldw	r2,-26912(fp)
 3040ed0:	1887883a 	add	r3,r3,r2
 3040ed4:	e0a5c117 	ldw	r2,-26876(fp)
 3040ed8:	1085883a 	add	r2,r2,r2
 3040edc:	1085883a 	add	r2,r2,r2
 3040ee0:	e125b204 	addi	r4,fp,-26936
 3040ee4:	1105883a 	add	r2,r2,r4
 3040ee8:	108fad04 	addi	r2,r2,16052
 3040eec:	10800017 	ldw	r2,0(r2)
 3040ef0:	10801184 	addi	r2,r2,70
 3040ef4:	1880132e 	bgeu	r3,r2,3040f44 <main+0xb54>
          {
              lcd_write_data(LCD_BASE,lyrics.text[k][(j+time_base)/2-2]);
 3040ef8:	e125c117 	ldw	r4,-26876(fp)
 3040efc:	e0e5b517 	ldw	r3,-26924(fp)
 3040f00:	e0a5b917 	ldw	r2,-26908(fp)
 3040f04:	1885883a 	add	r2,r3,r2
 3040f08:	1004d07a 	srli	r2,r2,1
 3040f0c:	10ffff84 	addi	r3,r2,-2
 3040f10:	2004917a 	slli	r2,r4,5
 3040f14:	e125b204 	addi	r4,fp,-26936
 3040f18:	1105883a 	add	r2,r2,r4
 3040f1c:	10c5883a 	add	r2,r2,r3
 3040f20:	1090d904 	addi	r2,r2,17252
 3040f24:	10800003 	ldbu	r2,0(r2)
 3040f28:	10c03fcc 	andi	r3,r2,255
 3040f2c:	18c0201c 	xori	r3,r3,128
 3040f30:	18ffe004 	addi	r3,r3,-128
 3040f34:	00804034 	movhi	r2,256
 3040f38:	10803a04 	addi	r2,r2,232
 3040f3c:	10c00035 	stwio	r3,0(r2)
              break;            
 3040f40:	00000606 	br	3040f5c <main+0xb6c>
        }
/********************************************************************/

        time(j+j_base,song_num+1,num_music); //display time

        for(k=0;k<num_lyrics;k++)            //display lyric
 3040f44:	e0a5c117 	ldw	r2,-26876(fp)
 3040f48:	10800044 	addi	r2,r2,1
 3040f4c:	e0a5c115 	stw	r2,-26876(fp)
 3040f50:	e0e5c117 	ldw	r3,-26876(fp)
 3040f54:	e0a5ba17 	ldw	r2,-26904(fp)
 3040f58:	18bf7036 	bltu	r3,r2,3040d1c <main+0x92c>
         song_position=(song_position+cluster_num-1)%cluster_num;  // reverse
         usleep(20000);
         continue;
      }   
      
      for(j=base;j<base+clupsec_num;j++) //j is the section in the cluster
 3040f5c:	e0a5b517 	ldw	r2,-26924(fp)
 3040f60:	10800044 	addi	r2,r2,1
 3040f64:	e0a5b515 	stw	r2,-26924(fp)
 3040f68:	e0e5d817 	ldw	r3,-26784(fp)
 3040f6c:	e0a5b717 	ldw	r2,-26916(fp)
 3040f70:	1887883a 	add	r3,r3,r2
 3040f74:	e0a5b517 	ldw	r2,-26924(fp)
 3040f78:	10ff1a36 	bltu	r2,r3,3040be4 <main+0x7f4>
    find_cluster(song_num,fat_addr,cl);
    for(i=0;cl[i]>1;i++);
    cluster_num=i;  
    
    show_name(music[song_num].m_name);   // show the name of the song
    for(song_position=0;song_position<cluster_num;song_position++)
 3040f7c:	e0a5c217 	ldw	r2,-26872(fp)
 3040f80:	10800044 	addi	r2,r2,1
 3040f84:	e0a5c215 	stw	r2,-26872(fp)
 3040f88:	e0e5c217 	ldw	r3,-26872(fp)
 3040f8c:	e0a5b617 	ldw	r2,-26920(fp)
 3040f90:	18beaf36 	bltu	r3,r2,3040a50 <main+0x660>
              break;            
          }          
        }             
    }   
   }
  }
 3040f94:	003d7706 	br	3040574 <main+0x184>

03040f98 <file_list>:
#include "head.h"


void file_list(struct music0 *music,struct lyric0 *lyric , int *m_num , int *l_num , int *clupsec_num, int *data_sector , int *fat_addr)
{
 3040f98:	deff5904 	addi	sp,sp,-668
 3040f9c:	dfc0a615 	stw	ra,664(sp)
 3040fa0:	df00a515 	stw	fp,660(sp)
 3040fa4:	df00a504 	addi	fp,sp,660
 3040fa8:	e13ffb15 	stw	r4,-20(fp)
 3040fac:	e17ffc15 	stw	r5,-16(fp)
 3040fb0:	e1bffd15 	stw	r6,-12(fp)
 3040fb4:	e1fffe15 	stw	r7,-8(fp)
  int num_dw,find_2e ,flag_done;   
  																	
  int fat_num,sectpfat_num,rese_fat_num;	
  UINT32 s_num ;
  UINT32 secu_sect_num ;                         
  char file_type[4]={'\0'}; 
 3040fb8:	e03f6815 	stw	zero,-608(fp)
  char f_wav[4]="WAV",f_lrc[4]="LRC"; 
 3040fbc:	0080c174 	movhi	r2,773
 3040fc0:	10ac6b04 	addi	r2,r2,-20052
 3040fc4:	10800017 	ldw	r2,0(r2)
 3040fc8:	e0bf6915 	stw	r2,-604(fp)
 3040fcc:	0080c174 	movhi	r2,773
 3040fd0:	10ac6c04 	addi	r2,r2,-20048
 3040fd4:	10800017 	ldw	r2,0(r2)
 3040fd8:	e0bf6a15 	stw	r2,-600(fp)
  char temp_name[64]={'\0'};
 3040fdc:	e13f6b04 	addi	r4,fp,-596
 3040fe0:	01801004 	movi	r6,64
 3040fe4:	000b883a 	mov	r5,zero
 3040fe8:	3044a100 	call	3044a10 <memset>
  
  
  BYTE Buffer[0x200]={0};  
 3040fec:	e13f7b04 	addi	r4,fp,-532
 3040ff0:	01808004 	movi	r6,512
 3040ff4:	000b883a 	mov	r5,zero
 3040ff8:	3044a100 	call	3044a10 <memset>
  sector = 0;  
 3040ffc:	e03f6715 	stw	zero,-612(fp)
  num_dw = 0x0;
 3041000:	e03f6215 	stw	zero,-632(fp)
  *m_num = 0;
 3041004:	e0bffd17 	ldw	r2,-12(fp)
 3041008:	10000015 	stw	zero,0(r2)
  *l_num = 0;
 304100c:	e0bffe17 	ldw	r2,-8(fp)
 3041010:	10000015 	stw	zero,0(r2)
  s_num = 0;
 3041014:	e03f5c15 	stw	zero,-656(fp)
  find_2e=0;
 3041018:	e03f6115 	stw	zero,-636(fp)
  flag_done = 0;
 304101c:	e03f6015 	stw	zero,-640(fp)
  k=0;
 3041020:	e03f6415 	stw	zero,-624(fp)
  j=0;
 3041024:	e03f6515 	stw	zero,-620(fp)
  i=0;
 3041028:	e03f6615 	stw	zero,-616(fp)
  flag_01=0;
 304102c:	e03f6315 	stw	zero,-628(fp)
 // LCD_Show_Text("yy");
 SD_read_lba(Buffer,sector,1);					// read according to lba, from the first sector
 3041030:	e17f6717 	ldw	r5,-612(fp)
 3041034:	e13f7b04 	addi	r4,fp,-532
 3041038:	01800044 	movi	r6,1
 304103c:	30439440 	call	3043944 <SD_read_lba>

 while(1)										//This loop is used to search the DBR table of the sd card,and extract the information from it, to calculate the content,fat1 and the starting sector of the data.
 {
  if( (Buffer[510] == 0x55 && Buffer[511])== 0xaa )              //the starting point of BDR table is 0xeb, and end with 0x55aa in one sector.
 3041040:	e0bffa83 	ldbu	r2,-22(fp)
 3041044:	10803fcc 	andi	r2,r2,255
 3041048:	10801558 	cmpnei	r2,r2,85
 304104c:	1000071e 	bne	r2,zero,304106c <file_list+0xd4>
 3041050:	e0bffac3 	ldbu	r2,-21(fp)
 3041054:	10803fcc 	andi	r2,r2,255
 3041058:	1005003a 	cmpeq	r2,r2,zero
 304105c:	1000031e 	bne	r2,zero,304106c <file_list+0xd4>
 3041060:	00800044 	movi	r2,1
 3041064:	e0bfff15 	stw	r2,-4(fp)
 3041068:	00000106 	br	3041070 <file_list+0xd8>
 304106c:	e03fff15 	stw	zero,-4(fp)
 3041070:	e0ffff17 	ldw	r3,-4(fp)
 3041074:	18802a98 	cmpnei	r2,r3,170
 3041078:	10003f1e 	bne	r2,zero,3041178 <file_list+0x1e0>
  {
    rese_fat_num=Buffer[0x0f]<<8|Buffer[0x0e];						//keep the number of sector
 304107c:	e0bf7ec3 	ldbu	r2,-517(fp)
 3041080:	10803fcc 	andi	r2,r2,255
 3041084:	1006923a 	slli	r3,r2,8
 3041088:	e0bf7e83 	ldbu	r2,-518(fp)
 304108c:	10803fcc 	andi	r2,r2,255
 3041090:	1884b03a 	or	r2,r3,r2
 3041094:	e0bf5d15 	stw	r2,-652(fp)
    *clupsec_num=Buffer[0x0d];											//number of sectors in each cluster
 3041098:	e0bf7e43 	ldbu	r2,-519(fp)
 304109c:	10c03fcc 	andi	r3,r2,255
 30410a0:	e0800217 	ldw	r2,8(fp)
 30410a4:	10c00015 	stw	r3,0(r2)
    fat_num=Buffer[0x10];												//number of fat table fat
 30410a8:	e0bf7f03 	ldbu	r2,-516(fp)
 30410ac:	10803fcc 	andi	r2,r2,255
 30410b0:	e0bf5f15 	stw	r2,-644(fp)
    sectpfat_num=Buffer[0x17]<<8 | Buffer[0x16];						//num of sectors of fat table
 30410b4:	e0bf80c3 	ldbu	r2,-509(fp)
 30410b8:	10803fcc 	andi	r2,r2,255
 30410bc:	1006923a 	slli	r3,r2,8
 30410c0:	e0bf8083 	ldbu	r2,-510(fp)
 30410c4:	10803fcc 	andi	r2,r2,255
 30410c8:	1884b03a 	or	r2,r3,r2
 30410cc:	e0bf5e15 	stw	r2,-648(fp)
    secu_sect_num=(Buffer[0x1f]<<24)|(Buffer[0x1e]<<16)|(Buffer[0x1d]<<8|Buffer[0x1c]);														//number of invisible sectors
 30410d0:	e0bf82c3 	ldbu	r2,-501(fp)
 30410d4:	10803fcc 	andi	r2,r2,255
 30410d8:	1006963a 	slli	r3,r2,24
 30410dc:	e0bf8283 	ldbu	r2,-502(fp)
 30410e0:	10803fcc 	andi	r2,r2,255
 30410e4:	1004943a 	slli	r2,r2,16
 30410e8:	1888b03a 	or	r4,r3,r2
 30410ec:	e0bf8243 	ldbu	r2,-503(fp)
 30410f0:	10803fcc 	andi	r2,r2,255
 30410f4:	1006923a 	slli	r3,r2,8
 30410f8:	e0bf8203 	ldbu	r2,-504(fp)
 30410fc:	10803fcc 	andi	r2,r2,255
 3041100:	1884b03a 	or	r2,r3,r2
 3041104:	2084b03a 	or	r2,r4,r2
 3041108:	e0bf5b15 	stw	r2,-660(fp)
    sector=fat_num*sectpfat_num+secu_sect_num+rese_fat_num;															//the address of the first content sector
 304110c:	e0ff5f17 	ldw	r3,-644(fp)
 3041110:	e0bf5e17 	ldw	r2,-648(fp)
 3041114:	1885383a 	mul	r2,r3,r2
 3041118:	1007883a 	mov	r3,r2
 304111c:	e0bf5b17 	ldw	r2,-660(fp)
 3041120:	1887883a 	add	r3,r3,r2
 3041124:	e0bf5d17 	ldw	r2,-652(fp)
 3041128:	1885883a 	add	r2,r3,r2
 304112c:	e0bf6715 	stw	r2,-612(fp)
    *data_sector=sector+32;																					//the address of first sector in data, size of the fat16 content table is 16k
 3041130:	e0bf6717 	ldw	r2,-612(fp)
 3041134:	10c00804 	addi	r3,r2,32
 3041138:	e0800317 	ldw	r2,12(fp)
 304113c:	10c00015 	stw	r3,0(r2)
    *fat_addr=rese_fat_num+secu_sect_num;															//address of content address
 3041140:	e0ff5d17 	ldw	r3,-652(fp)
 3041144:	e0bf5b17 	ldw	r2,-660(fp)
 3041148:	1885883a 	add	r2,r3,r2
 304114c:	1007883a 	mov	r3,r2
 3041150:	e0800417 	ldw	r2,16(fp)
 3041154:	10c00015 	stw	r3,0(r2)
    SD_read_lba(Buffer,sector,1);
 3041158:	e17f6717 	ldw	r5,-612(fp)
 304115c:	e13f7b04 	addi	r4,fp,-532
 3041160:	01800044 	movi	r6,1
 3041164:	30439440 	call	3043944 <SD_read_lba>
    SD_read_lba(Buffer,sector,1);
    sector++;

  } 
 }
 LCD_Show_Text("bg");
 3041168:	0100c174 	movhi	r4,773
 304116c:	212c6a04 	addi	r4,r4,-20056
 3041170:	304029c0 	call	304029c <LCD_Show_Text>
  while(Buffer[num_dw*DW]!=0x00)
 3041174:	00040c06 	br	30421a8 <file_list+0x1210>

    break;
  }
  else
  { 
    SD_read_lba(Buffer,sector,1);
 3041178:	e17f6717 	ldw	r5,-612(fp)
 304117c:	e13f7b04 	addi	r4,fp,-532
 3041180:	01800044 	movi	r6,1
 3041184:	30439440 	call	3043944 <SD_read_lba>
    sector++;
 3041188:	e0bf6717 	ldw	r2,-612(fp)
 304118c:	10800044 	addi	r2,r2,1
 3041190:	e0bf6715 	stw	r2,-612(fp)

  } 
 }
 3041194:	003faa06 	br	3041040 <file_list+0xa8>
 LCD_Show_Text("bg");
  while(Buffer[num_dw*DW]!=0x00)
  {
    while(Buffer[num_dw*DW]==0xE5 )
    {
       num_dw+=0x1;
 3041198:	e0bf6217 	ldw	r2,-632(fp)
 304119c:	10800044 	addi	r2,r2,1
 30411a0:	e0bf6215 	stw	r2,-632(fp)
       if (num_dw==16)
 30411a4:	e0bf6217 	ldw	r2,-632(fp)
 30411a8:	10800418 	cmpnei	r2,r2,16
 30411ac:	10000a1e 	bne	r2,zero,30411d8 <file_list+0x240>
       {
         s_num++;
 30411b0:	e0bf5c17 	ldw	r2,-656(fp)
 30411b4:	10800044 	addi	r2,r2,1
 30411b8:	e0bf5c15 	stw	r2,-656(fp)
         SD_read_lba(Buffer,sector+s_num,1);
 30411bc:	e0ff6717 	ldw	r3,-612(fp)
 30411c0:	e0bf5c17 	ldw	r2,-656(fp)
 30411c4:	188b883a 	add	r5,r3,r2
 30411c8:	e13f7b04 	addi	r4,fp,-532
 30411cc:	01800044 	movi	r6,1
 30411d0:	30439440 	call	3043944 <SD_read_lba>
         num_dw=0;    
 30411d4:	e03f6215 	stw	zero,-632(fp)
  } 
 }
 LCD_Show_Text("bg");
  while(Buffer[num_dw*DW]!=0x00)
  {
    while(Buffer[num_dw*DW]==0xE5 )
 30411d8:	e0bf6217 	ldw	r2,-632(fp)
 30411dc:	1006917a 	slli	r3,r2,5
 30411e0:	e0bf7b04 	addi	r2,fp,-532
 30411e4:	10c5883a 	add	r2,r2,r3
 30411e8:	10800003 	ldbu	r2,0(r2)
 30411ec:	10803fcc 	andi	r2,r2,255
 30411f0:	10803960 	cmpeqi	r2,r2,229
 30411f4:	103fe81e 	bne	r2,zero,3041198 <file_list+0x200>
         s_num++;
         SD_read_lba(Buffer,sector+s_num,1);
         num_dw=0;    
       }
    }
    if(Buffer[num_dw*DW+0xb]!=0x0f && Buffer[num_dw*DW+0x6]!=0x7e)
 30411f8:	e0bf6217 	ldw	r2,-632(fp)
 30411fc:	1004917a 	slli	r2,r2,5
 3041200:	10c002c4 	addi	r3,r2,11
 3041204:	e0bf7b04 	addi	r2,fp,-532
 3041208:	10c5883a 	add	r2,r2,r3
 304120c:	10800003 	ldbu	r2,0(r2)
 3041210:	10803fcc 	andi	r2,r2,255
 3041214:	108003e0 	cmpeqi	r2,r2,15
 3041218:	1000d01e 	bne	r2,zero,304155c <file_list+0x5c4>
 304121c:	e0bf6217 	ldw	r2,-632(fp)
 3041220:	1004917a 	slli	r2,r2,5
 3041224:	10c00184 	addi	r3,r2,6
 3041228:	e0bf7b04 	addi	r2,fp,-532
 304122c:	10c5883a 	add	r2,r2,r3
 3041230:	10800003 	ldbu	r2,0(r2)
 3041234:	10803fcc 	andi	r2,r2,255
 3041238:	10801fa0 	cmpeqi	r2,r2,126
 304123c:	1000c71e 	bne	r2,zero,304155c <file_list+0x5c4>
    {
      for(i=0; i<3; i++)
 3041240:	e03f6615 	stw	zero,-616(fp)
 3041244:	00001006 	br	3041288 <file_list+0x2f0>
        file_type[i]=(char)Buffer[num_dw*DW+8+i];
 3041248:	e13f6617 	ldw	r4,-616(fp)
 304124c:	e0bf6217 	ldw	r2,-632(fp)
 3041250:	1006917a 	slli	r3,r2,5
 3041254:	e0bf6617 	ldw	r2,-616(fp)
 3041258:	1885883a 	add	r2,r3,r2
 304125c:	10c00204 	addi	r3,r2,8
 3041260:	e0bf7b04 	addi	r2,fp,-532
 3041264:	10c5883a 	add	r2,r2,r3
 3041268:	10800003 	ldbu	r2,0(r2)
 304126c:	1007883a 	mov	r3,r2
 3041270:	e0bf6804 	addi	r2,fp,-608
 3041274:	1105883a 	add	r2,r2,r4
 3041278:	10c00005 	stb	r3,0(r2)
         num_dw=0;    
       }
    }
    if(Buffer[num_dw*DW+0xb]!=0x0f && Buffer[num_dw*DW+0x6]!=0x7e)
    {
      for(i=0; i<3; i++)
 304127c:	e0bf6617 	ldw	r2,-616(fp)
 3041280:	10800044 	addi	r2,r2,1
 3041284:	e0bf6615 	stw	r2,-616(fp)
 3041288:	e0bf6617 	ldw	r2,-616(fp)
 304128c:	108000d0 	cmplti	r2,r2,3
 3041290:	103fed1e 	bne	r2,zero,3041248 <file_list+0x2b0>
        file_type[i]=(char)Buffer[num_dw*DW+8+i];
      file_type[i]='\0';
 3041294:	e0ff6617 	ldw	r3,-616(fp)
 3041298:	e0bf6804 	addi	r2,fp,-608
 304129c:	10c5883a 	add	r2,r2,r3
 30412a0:	10000005 	stb	zero,0(r2)
      if(strcmp(file_type,f_wav)==0)
 30412a4:	e13f6804 	addi	r4,fp,-608
 30412a8:	e17f6904 	addi	r5,fp,-604
 30412ac:	3044aa80 	call	3044aa8 <strcmp>
 30412b0:	1004c03a 	cmpne	r2,r2,zero
 30412b4:	1000521e 	bne	r2,zero,3041400 <file_list+0x468>
      {
        for(i=0; i<8; i++)
 30412b8:	e03f6615 	stw	zero,-616(fp)
 30412bc:	00001406 	br	3041310 <file_list+0x378>
          music[*m_num].m_name[i]=Buffer[num_dw*DW+i];
 30412c0:	e0bffd17 	ldw	r2,-12(fp)
 30412c4:	10800017 	ldw	r2,0(r2)
 30412c8:	10800e24 	muli	r2,r2,56
 30412cc:	1007883a 	mov	r3,r2
 30412d0:	e0bffb17 	ldw	r2,-20(fp)
 30412d4:	1889883a 	add	r4,r3,r2
 30412d8:	e17f6617 	ldw	r5,-616(fp)
 30412dc:	e0bf6217 	ldw	r2,-632(fp)
 30412e0:	1006917a 	slli	r3,r2,5
 30412e4:	e0bf6617 	ldw	r2,-616(fp)
 30412e8:	1887883a 	add	r3,r3,r2
 30412ec:	e0bf7b04 	addi	r2,fp,-532
 30412f0:	10c5883a 	add	r2,r2,r3
 30412f4:	10800003 	ldbu	r2,0(r2)
 30412f8:	1007883a 	mov	r3,r2
 30412fc:	2145883a 	add	r2,r4,r5
 3041300:	10c00005 	stb	r3,0(r2)
      for(i=0; i<3; i++)
        file_type[i]=(char)Buffer[num_dw*DW+8+i];
      file_type[i]='\0';
      if(strcmp(file_type,f_wav)==0)
      {
        for(i=0; i<8; i++)
 3041304:	e0bf6617 	ldw	r2,-616(fp)
 3041308:	10800044 	addi	r2,r2,1
 304130c:	e0bf6615 	stw	r2,-616(fp)
 3041310:	e0bf6617 	ldw	r2,-616(fp)
 3041314:	10800210 	cmplti	r2,r2,8
 3041318:	103fe91e 	bne	r2,zero,30412c0 <file_list+0x328>
          music[*m_num].m_name[i]=Buffer[num_dw*DW+i];
        for(i=8;i<32;i++)
 304131c:	00800204 	movi	r2,8
 3041320:	e0bf6615 	stw	r2,-616(fp)
 3041324:	00000d06 	br	304135c <file_list+0x3c4>
          music[*m_num].m_name[i]=0x20;
 3041328:	e0bffd17 	ldw	r2,-12(fp)
 304132c:	10800017 	ldw	r2,0(r2)
 3041330:	10800e24 	muli	r2,r2,56
 3041334:	1007883a 	mov	r3,r2
 3041338:	e0bffb17 	ldw	r2,-20(fp)
 304133c:	1887883a 	add	r3,r3,r2
 3041340:	e0bf6617 	ldw	r2,-616(fp)
 3041344:	1887883a 	add	r3,r3,r2
 3041348:	00800804 	movi	r2,32
 304134c:	18800005 	stb	r2,0(r3)
      file_type[i]='\0';
      if(strcmp(file_type,f_wav)==0)
      {
        for(i=0; i<8; i++)
          music[*m_num].m_name[i]=Buffer[num_dw*DW+i];
        for(i=8;i<32;i++)
 3041350:	e0bf6617 	ldw	r2,-616(fp)
 3041354:	10800044 	addi	r2,r2,1
 3041358:	e0bf6615 	stw	r2,-616(fp)
 304135c:	e0bf6617 	ldw	r2,-616(fp)
 3041360:	10800810 	cmplti	r2,r2,32
 3041364:	103ff01e 	bne	r2,zero,3041328 <file_list+0x390>
          music[*m_num].m_name[i]=0x20;
        music[*m_num].m_name[i]='\0';
 3041368:	e0bffd17 	ldw	r2,-12(fp)
 304136c:	10800017 	ldw	r2,0(r2)
 3041370:	10800e24 	muli	r2,r2,56
 3041374:	1007883a 	mov	r3,r2
 3041378:	e0bffb17 	ldw	r2,-20(fp)
 304137c:	1887883a 	add	r3,r3,r2
 3041380:	e0bf6617 	ldw	r2,-616(fp)
 3041384:	1885883a 	add	r2,r3,r2
 3041388:	10000005 	stb	zero,0(r2)
        music[*m_num].cluster =(Buffer[num_dw*DW+0x1b]<<8)|Buffer[num_dw*DW+0x1a];
 304138c:	e0bffd17 	ldw	r2,-12(fp)
 3041390:	10800017 	ldw	r2,0(r2)
 3041394:	10800e24 	muli	r2,r2,56
 3041398:	1007883a 	mov	r3,r2
 304139c:	e0bffb17 	ldw	r2,-20(fp)
 30413a0:	188b883a 	add	r5,r3,r2
 30413a4:	e0bf6217 	ldw	r2,-632(fp)
 30413a8:	1004917a 	slli	r2,r2,5
 30413ac:	10c006c4 	addi	r3,r2,27
 30413b0:	e0bf7b04 	addi	r2,fp,-532
 30413b4:	10c5883a 	add	r2,r2,r3
 30413b8:	10800003 	ldbu	r2,0(r2)
 30413bc:	10803fcc 	andi	r2,r2,255
 30413c0:	1008923a 	slli	r4,r2,8
 30413c4:	e0bf6217 	ldw	r2,-632(fp)
 30413c8:	1004917a 	slli	r2,r2,5
 30413cc:	10c00684 	addi	r3,r2,26
 30413d0:	e0bf7b04 	addi	r2,fp,-532
 30413d4:	10c5883a 	add	r2,r2,r3
 30413d8:	10800003 	ldbu	r2,0(r2)
 30413dc:	10803fcc 	andi	r2,r2,255
 30413e0:	2084b03a 	or	r2,r4,r2
 30413e4:	28800d15 	stw	r2,52(r5)
        (*m_num)++;
 30413e8:	e0bffd17 	ldw	r2,-12(fp)
 30413ec:	10800017 	ldw	r2,0(r2)
 30413f0:	10c00044 	addi	r3,r2,1
 30413f4:	e0bffd17 	ldw	r2,-12(fp)
 30413f8:	10c00015 	stw	r3,0(r2)
 30413fc:	00035a06 	br	3042168 <file_list+0x11d0>
      }
      else if(strcmp(file_type,f_lrc)==0)
 3041400:	e13f6804 	addi	r4,fp,-608
 3041404:	e17f6a04 	addi	r5,fp,-600
 3041408:	3044aa80 	call	3044aa8 <strcmp>
 304140c:	1004c03a 	cmpne	r2,r2,zero
 3041410:	1003551e 	bne	r2,zero,3042168 <file_list+0x11d0>
      {
        for(i=0; i<8; i++)
 3041414:	e03f6615 	stw	zero,-616(fp)
 3041418:	00001406 	br	304146c <file_list+0x4d4>
          lyric[*l_num].l_name[i]=Buffer[num_dw*DW+i];
 304141c:	e0bffe17 	ldw	r2,-8(fp)
 3041420:	10800017 	ldw	r2,0(r2)
 3041424:	10800e24 	muli	r2,r2,56
 3041428:	1007883a 	mov	r3,r2
 304142c:	e0bffc17 	ldw	r2,-16(fp)
 3041430:	1889883a 	add	r4,r3,r2
 3041434:	e17f6617 	ldw	r5,-616(fp)
 3041438:	e0bf6217 	ldw	r2,-632(fp)
 304143c:	1006917a 	slli	r3,r2,5
 3041440:	e0bf6617 	ldw	r2,-616(fp)
 3041444:	1887883a 	add	r3,r3,r2
 3041448:	e0bf7b04 	addi	r2,fp,-532
 304144c:	10c5883a 	add	r2,r2,r3
 3041450:	10800003 	ldbu	r2,0(r2)
 3041454:	1007883a 	mov	r3,r2
 3041458:	2145883a 	add	r2,r4,r5
 304145c:	10c00005 	stb	r3,0(r2)
        music[*m_num].cluster =(Buffer[num_dw*DW+0x1b]<<8)|Buffer[num_dw*DW+0x1a];
        (*m_num)++;
      }
      else if(strcmp(file_type,f_lrc)==0)
      {
        for(i=0; i<8; i++)
 3041460:	e0bf6617 	ldw	r2,-616(fp)
 3041464:	10800044 	addi	r2,r2,1
 3041468:	e0bf6615 	stw	r2,-616(fp)
 304146c:	e0bf6617 	ldw	r2,-616(fp)
 3041470:	10800210 	cmplti	r2,r2,8
 3041474:	103fe91e 	bne	r2,zero,304141c <file_list+0x484>
          lyric[*l_num].l_name[i]=Buffer[num_dw*DW+i];
        for(i=8;i<32;i++)
 3041478:	00800204 	movi	r2,8
 304147c:	e0bf6615 	stw	r2,-616(fp)
 3041480:	00000d06 	br	30414b8 <file_list+0x520>
          lyric[*l_num].l_name[i]=0x20;
 3041484:	e0bffe17 	ldw	r2,-8(fp)
 3041488:	10800017 	ldw	r2,0(r2)
 304148c:	10800e24 	muli	r2,r2,56
 3041490:	1007883a 	mov	r3,r2
 3041494:	e0bffc17 	ldw	r2,-16(fp)
 3041498:	1887883a 	add	r3,r3,r2
 304149c:	e0bf6617 	ldw	r2,-616(fp)
 30414a0:	1887883a 	add	r3,r3,r2
 30414a4:	00800804 	movi	r2,32
 30414a8:	18800005 	stb	r2,0(r3)
      }
      else if(strcmp(file_type,f_lrc)==0)
      {
        for(i=0; i<8; i++)
          lyric[*l_num].l_name[i]=Buffer[num_dw*DW+i];
        for(i=8;i<32;i++)
 30414ac:	e0bf6617 	ldw	r2,-616(fp)
 30414b0:	10800044 	addi	r2,r2,1
 30414b4:	e0bf6615 	stw	r2,-616(fp)
 30414b8:	e0bf6617 	ldw	r2,-616(fp)
 30414bc:	10800810 	cmplti	r2,r2,32
 30414c0:	103ff01e 	bne	r2,zero,3041484 <file_list+0x4ec>
          lyric[*l_num].l_name[i]=0x20;
        lyric[*l_num].l_name[i]='\0';
 30414c4:	e0bffe17 	ldw	r2,-8(fp)
 30414c8:	10800017 	ldw	r2,0(r2)
 30414cc:	10800e24 	muli	r2,r2,56
 30414d0:	1007883a 	mov	r3,r2
 30414d4:	e0bffc17 	ldw	r2,-16(fp)
 30414d8:	1887883a 	add	r3,r3,r2
 30414dc:	e0bf6617 	ldw	r2,-616(fp)
 30414e0:	1885883a 	add	r2,r3,r2
 30414e4:	10000005 	stb	zero,0(r2)
        lyric[*l_num].cluster=(Buffer[num_dw*DW+0x1b]<<8)|Buffer[num_dw*DW+0x1a];
 30414e8:	e0bffe17 	ldw	r2,-8(fp)
 30414ec:	10800017 	ldw	r2,0(r2)
 30414f0:	10800e24 	muli	r2,r2,56
 30414f4:	1007883a 	mov	r3,r2
 30414f8:	e0bffc17 	ldw	r2,-16(fp)
 30414fc:	188b883a 	add	r5,r3,r2
 3041500:	e0bf6217 	ldw	r2,-632(fp)
 3041504:	1004917a 	slli	r2,r2,5
 3041508:	10c006c4 	addi	r3,r2,27
 304150c:	e0bf7b04 	addi	r2,fp,-532
 3041510:	10c5883a 	add	r2,r2,r3
 3041514:	10800003 	ldbu	r2,0(r2)
 3041518:	10803fcc 	andi	r2,r2,255
 304151c:	1008923a 	slli	r4,r2,8
 3041520:	e0bf6217 	ldw	r2,-632(fp)
 3041524:	1004917a 	slli	r2,r2,5
 3041528:	10c00684 	addi	r3,r2,26
 304152c:	e0bf7b04 	addi	r2,fp,-532
 3041530:	10c5883a 	add	r2,r2,r3
 3041534:	10800003 	ldbu	r2,0(r2)
 3041538:	10803fcc 	andi	r2,r2,255
 304153c:	2084b03a 	or	r2,r4,r2
 3041540:	28800d15 	stw	r2,52(r5)
        (*l_num)++;
 3041544:	e0bffe17 	ldw	r2,-8(fp)
 3041548:	10800017 	ldw	r2,0(r2)
 304154c:	10c00044 	addi	r3,r2,1
 3041550:	e0bffe17 	ldw	r2,-8(fp)
 3041554:	10c00015 	stw	r3,0(r2)
         s_num++;
         SD_read_lba(Buffer,sector+s_num,1);
         num_dw=0;    
       }
    }
    if(Buffer[num_dw*DW+0xb]!=0x0f && Buffer[num_dw*DW+0x6]!=0x7e)
 3041558:	00030306 	br	3042168 <file_list+0x11d0>
        lyric[*l_num].l_name[i]='\0';
        lyric[*l_num].cluster=(Buffer[num_dw*DW+0x1b]<<8)|Buffer[num_dw*DW+0x1a];
        (*l_num)++;
      }
    }
    else if(Buffer[num_dw*DW+0xb]==0x0f) 
 304155c:	e0bf6217 	ldw	r2,-632(fp)
 3041560:	1004917a 	slli	r2,r2,5
 3041564:	10c002c4 	addi	r3,r2,11
 3041568:	e0bf7b04 	addi	r2,fp,-532
 304156c:	10c5883a 	add	r2,r2,r3
 3041570:	10800003 	ldbu	r2,0(r2)
 3041574:	10803fcc 	andi	r2,r2,255
 3041578:	108003d8 	cmpnei	r2,r2,15
 304157c:	1002fa1e 	bne	r2,zero,3042168 <file_list+0x11d0>
    {
      if(((Buffer[(num_dw)*DW] >>6 ==1) || j==1)&& find_2e==0)
 3041580:	e0bf6217 	ldw	r2,-632(fp)
 3041584:	1006917a 	slli	r3,r2,5
 3041588:	e0bf7b04 	addi	r2,fp,-532
 304158c:	10c5883a 	add	r2,r2,r3
 3041590:	10800003 	ldbu	r2,0(r2)
 3041594:	10803fcc 	andi	r2,r2,255
 3041598:	1004d1ba 	srli	r2,r2,6
 304159c:	10803fcc 	andi	r2,r2,255
 30415a0:	10800060 	cmpeqi	r2,r2,1
 30415a4:	1000031e 	bne	r2,zero,30415b4 <file_list+0x61c>
 30415a8:	e0bf6517 	ldw	r2,-620(fp)
 30415ac:	10800058 	cmpnei	r2,r2,1
 30415b0:	10004e1e 	bne	r2,zero,30416ec <file_list+0x754>
 30415b4:	e0bf6117 	ldw	r2,-636(fp)
 30415b8:	1004c03a 	cmpne	r2,r2,zero
 30415bc:	10004b1e 	bne	r2,zero,30416ec <file_list+0x754>
      {                                                      
        for(i=0x1e;i>0x1a;i-=2)															
 30415c0:	00800784 	movi	r2,30
 30415c4:	e0bf6615 	stw	r2,-616(fp)
 30415c8:	00001006 	br	304160c <file_list+0x674>
        {
          if((Buffer[(num_dw)*DW+i])==0x2e)
 30415cc:	e0bf6217 	ldw	r2,-632(fp)
 30415d0:	1006917a 	slli	r3,r2,5
 30415d4:	e0bf6617 	ldw	r2,-616(fp)
 30415d8:	1887883a 	add	r3,r3,r2
 30415dc:	e0bf7b04 	addi	r2,fp,-532
 30415e0:	10c5883a 	add	r2,r2,r3
 30415e4:	10800003 	ldbu	r2,0(r2)
 30415e8:	10803fcc 	andi	r2,r2,255
 30415ec:	10800b98 	cmpnei	r2,r2,46
 30415f0:	1000031e 	bne	r2,zero,3041600 <file_list+0x668>
          {
            find_2e=i;
 30415f4:	e0bf6617 	ldw	r2,-616(fp)
 30415f8:	e0bf6115 	stw	r2,-636(fp)
            break;  
 30415fc:	00000606 	br	3041618 <file_list+0x680>
    }
    else if(Buffer[num_dw*DW+0xb]==0x0f) 
    {
      if(((Buffer[(num_dw)*DW] >>6 ==1) || j==1)&& find_2e==0)
      {                                                      
        for(i=0x1e;i>0x1a;i-=2)															
 3041600:	e0bf6617 	ldw	r2,-616(fp)
 3041604:	10bfff84 	addi	r2,r2,-2
 3041608:	e0bf6615 	stw	r2,-616(fp)
 304160c:	e0bf6617 	ldw	r2,-616(fp)
 3041610:	108006c8 	cmpgei	r2,r2,27
 3041614:	103fed1e 	bne	r2,zero,30415cc <file_list+0x634>
          {
            find_2e=i;
            break;  
          }
        }
        if(i==0x1a)
 3041618:	e0bf6617 	ldw	r2,-616(fp)
 304161c:	10800698 	cmpnei	r2,r2,26
 3041620:	1000161e 	bne	r2,zero,304167c <file_list+0x6e4>
        {
          for(i=0x18;i>0x0d;i-=2)
 3041624:	00800604 	movi	r2,24
 3041628:	e0bf6615 	stw	r2,-616(fp)
 304162c:	00001006 	br	3041670 <file_list+0x6d8>
          {
            if((Buffer[(num_dw)*DW+i])==0x2e)
 3041630:	e0bf6217 	ldw	r2,-632(fp)
 3041634:	1006917a 	slli	r3,r2,5
 3041638:	e0bf6617 	ldw	r2,-616(fp)
 304163c:	1887883a 	add	r3,r3,r2
 3041640:	e0bf7b04 	addi	r2,fp,-532
 3041644:	10c5883a 	add	r2,r2,r3
 3041648:	10800003 	ldbu	r2,0(r2)
 304164c:	10803fcc 	andi	r2,r2,255
 3041650:	10800b98 	cmpnei	r2,r2,46
 3041654:	1000031e 	bne	r2,zero,3041664 <file_list+0x6cc>
            {
              find_2e=i;
 3041658:	e0bf6617 	ldw	r2,-616(fp)
 304165c:	e0bf6115 	stw	r2,-636(fp)
              break;  
 3041660:	00000606 	br	304167c <file_list+0x6e4>
            break;  
          }
        }
        if(i==0x1a)
        {
          for(i=0x18;i>0x0d;i-=2)
 3041664:	e0bf6617 	ldw	r2,-616(fp)
 3041668:	10bfff84 	addi	r2,r2,-2
 304166c:	e0bf6615 	stw	r2,-616(fp)
 3041670:	e0bf6617 	ldw	r2,-616(fp)
 3041674:	10800388 	cmpgei	r2,r2,14
 3041678:	103fed1e 	bne	r2,zero,3041630 <file_list+0x698>
              find_2e=i;
              break;  
            }
          } 
        }
        if(i==0x0c)
 304167c:	e0bf6617 	ldw	r2,-616(fp)
 3041680:	10800318 	cmpnei	r2,r2,12
 3041684:	1000161e 	bne	r2,zero,30416e0 <file_list+0x748>
        {
          for(i=0x09;i>0;i-=2)
 3041688:	00800244 	movi	r2,9
 304168c:	e0bf6615 	stw	r2,-616(fp)
 3041690:	00001006 	br	30416d4 <file_list+0x73c>
          {
            if((Buffer[(num_dw)*DW+i])==0x2e)
 3041694:	e0bf6217 	ldw	r2,-632(fp)
 3041698:	1006917a 	slli	r3,r2,5
 304169c:	e0bf6617 	ldw	r2,-616(fp)
 30416a0:	1887883a 	add	r3,r3,r2
 30416a4:	e0bf7b04 	addi	r2,fp,-532
 30416a8:	10c5883a 	add	r2,r2,r3
 30416ac:	10800003 	ldbu	r2,0(r2)
 30416b0:	10803fcc 	andi	r2,r2,255
 30416b4:	10800b98 	cmpnei	r2,r2,46
 30416b8:	1000031e 	bne	r2,zero,30416c8 <file_list+0x730>
            {
              find_2e=i;
 30416bc:	e0bf6617 	ldw	r2,-616(fp)
 30416c0:	e0bf6115 	stw	r2,-636(fp)
              break;  
 30416c4:	00000606 	br	30416e0 <file_list+0x748>
            }
          } 
        }
        if(i==0x0c)
        {
          for(i=0x09;i>0;i-=2)
 30416c8:	e0bf6617 	ldw	r2,-616(fp)
 30416cc:	10bfff84 	addi	r2,r2,-2
 30416d0:	e0bf6615 	stw	r2,-616(fp)
 30416d4:	e0bf6617 	ldw	r2,-616(fp)
 30416d8:	10800048 	cmpgei	r2,r2,1
 30416dc:	103fed1e 	bne	r2,zero,3041694 <file_list+0x6fc>
              find_2e=i;
              break;  
            }
          } 
        }
        j++;
 30416e0:	e0bf6517 	ldw	r2,-620(fp)
 30416e4:	10800044 	addi	r2,r2,1
 30416e8:	e0bf6515 	stw	r2,-620(fp)
      }
      if(find_2e!=0 && k==0 && flag_01==0)
 30416ec:	e0bf6117 	ldw	r2,-636(fp)
 30416f0:	1005003a 	cmpeq	r2,r2,zero
 30416f4:	1000d51e 	bne	r2,zero,3041a4c <file_list+0xab4>
 30416f8:	e0bf6417 	ldw	r2,-624(fp)
 30416fc:	1004c03a 	cmpne	r2,r2,zero
 3041700:	1000d21e 	bne	r2,zero,3041a4c <file_list+0xab4>
 3041704:	e0bf6317 	ldw	r2,-628(fp)
 3041708:	1004c03a 	cmpne	r2,r2,zero
 304170c:	1000cf1e 	bne	r2,zero,3041a4c <file_list+0xab4>
      { 
        if(find_2e==0x1e || find_2e==0x1c)
 3041710:	e0bf6117 	ldw	r2,-636(fp)
 3041714:	108007a0 	cmpeqi	r2,r2,30
 3041718:	1000031e 	bne	r2,zero,3041728 <file_list+0x790>
 304171c:	e0bf6117 	ldw	r2,-636(fp)
 3041720:	10800718 	cmpnei	r2,r2,28
 3041724:	1000421e 	bne	r2,zero,3041830 <file_list+0x898>
        {
          if(find_2e==0x1e)
 3041728:	e0bf6117 	ldw	r2,-636(fp)
 304172c:	10800798 	cmpnei	r2,r2,30
 3041730:	10000e1e 	bne	r2,zero,304176c <file_list+0x7d4>
           temp_name[k++]=Buffer[num_dw*DW+0x1c];
 3041734:	e13f6417 	ldw	r4,-624(fp)
 3041738:	e0bf6217 	ldw	r2,-632(fp)
 304173c:	1004917a 	slli	r2,r2,5
 3041740:	10c00704 	addi	r3,r2,28
 3041744:	e0bf7b04 	addi	r2,fp,-532
 3041748:	10c5883a 	add	r2,r2,r3
 304174c:	10800003 	ldbu	r2,0(r2)
 3041750:	1007883a 	mov	r3,r2
 3041754:	e0bf6b04 	addi	r2,fp,-596
 3041758:	1105883a 	add	r2,r2,r4
 304175c:	10c00005 	stb	r3,0(r2)
 3041760:	e0bf6417 	ldw	r2,-624(fp)
 3041764:	10800044 	addi	r2,r2,1
 3041768:	e0bf6415 	stw	r2,-624(fp)
          for(j=0x18;j>0x0d;j-=2)
 304176c:	00800604 	movi	r2,24
 3041770:	e0bf6515 	stw	r2,-620(fp)
 3041774:	00001206 	br	30417c0 <file_list+0x828>
            temp_name[k++]=Buffer[num_dw*DW+j];
 3041778:	e13f6417 	ldw	r4,-624(fp)
 304177c:	e0bf6217 	ldw	r2,-632(fp)
 3041780:	1006917a 	slli	r3,r2,5
 3041784:	e0bf6517 	ldw	r2,-620(fp)
 3041788:	1887883a 	add	r3,r3,r2
 304178c:	e0bf7b04 	addi	r2,fp,-532
 3041790:	10c5883a 	add	r2,r2,r3
 3041794:	10800003 	ldbu	r2,0(r2)
 3041798:	1007883a 	mov	r3,r2
 304179c:	e0bf6b04 	addi	r2,fp,-596
 30417a0:	1105883a 	add	r2,r2,r4
 30417a4:	10c00005 	stb	r3,0(r2)
 30417a8:	e0bf6417 	ldw	r2,-624(fp)
 30417ac:	10800044 	addi	r2,r2,1
 30417b0:	e0bf6415 	stw	r2,-624(fp)
      { 
        if(find_2e==0x1e || find_2e==0x1c)
        {
          if(find_2e==0x1e)
           temp_name[k++]=Buffer[num_dw*DW+0x1c];
          for(j=0x18;j>0x0d;j-=2)
 30417b4:	e0bf6517 	ldw	r2,-620(fp)
 30417b8:	10bfff84 	addi	r2,r2,-2
 30417bc:	e0bf6515 	stw	r2,-620(fp)
 30417c0:	e0bf6517 	ldw	r2,-620(fp)
 30417c4:	10800388 	cmpgei	r2,r2,14
 30417c8:	103feb1e 	bne	r2,zero,3041778 <file_list+0x7e0>
            temp_name[k++]=Buffer[num_dw*DW+j];
          for(j=0x09;j>0;j-=2)
 30417cc:	00800244 	movi	r2,9
 30417d0:	e0bf6515 	stw	r2,-620(fp)
 30417d4:	00001206 	br	3041820 <file_list+0x888>
            temp_name[k++]=Buffer[num_dw*DW+j];
 30417d8:	e13f6417 	ldw	r4,-624(fp)
 30417dc:	e0bf6217 	ldw	r2,-632(fp)
 30417e0:	1006917a 	slli	r3,r2,5
 30417e4:	e0bf6517 	ldw	r2,-620(fp)
 30417e8:	1887883a 	add	r3,r3,r2
 30417ec:	e0bf7b04 	addi	r2,fp,-532
 30417f0:	10c5883a 	add	r2,r2,r3
 30417f4:	10800003 	ldbu	r2,0(r2)
 30417f8:	1007883a 	mov	r3,r2
 30417fc:	e0bf6b04 	addi	r2,fp,-596
 3041800:	1105883a 	add	r2,r2,r4
 3041804:	10c00005 	stb	r3,0(r2)
 3041808:	e0bf6417 	ldw	r2,-624(fp)
 304180c:	10800044 	addi	r2,r2,1
 3041810:	e0bf6415 	stw	r2,-624(fp)
        {
          if(find_2e==0x1e)
           temp_name[k++]=Buffer[num_dw*DW+0x1c];
          for(j=0x18;j>0x0d;j-=2)
            temp_name[k++]=Buffer[num_dw*DW+j];
          for(j=0x09;j>0;j-=2)
 3041814:	e0bf6517 	ldw	r2,-620(fp)
 3041818:	10bfff84 	addi	r2,r2,-2
 304181c:	e0bf6515 	stw	r2,-620(fp)
 3041820:	e0bf6517 	ldw	r2,-620(fp)
 3041824:	10800048 	cmpgei	r2,r2,1
 3041828:	103feb1e 	bne	r2,zero,30417d8 <file_list+0x840>
        }
        j++;
      }
      if(find_2e!=0 && k==0 && flag_01==0)
      { 
        if(find_2e==0x1e || find_2e==0x1c)
 304182c:	00005d06 	br	30419a4 <file_list+0xa0c>
          for(j=0x18;j>0x0d;j-=2)
            temp_name[k++]=Buffer[num_dw*DW+j];
          for(j=0x09;j>0;j-=2)
            temp_name[k++]=Buffer[num_dw*DW+j];
        }
        else if(find_2e>=0x0e && find_2e <= 0x18)
 3041830:	e0bf6117 	ldw	r2,-636(fp)
 3041834:	10800390 	cmplti	r2,r2,14
 3041838:	1000351e 	bne	r2,zero,3041910 <file_list+0x978>
 304183c:	e0bf6117 	ldw	r2,-636(fp)
 3041840:	10800648 	cmpgei	r2,r2,25
 3041844:	1000321e 	bne	r2,zero,3041910 <file_list+0x978>
        {
          for(j=find_2e-2;j>0x0d;j-=2)
 3041848:	e0bf6117 	ldw	r2,-636(fp)
 304184c:	10bfff84 	addi	r2,r2,-2
 3041850:	e0bf6515 	stw	r2,-620(fp)
 3041854:	00001206 	br	30418a0 <file_list+0x908>
            temp_name[k++]=Buffer[num_dw*DW+j];
 3041858:	e13f6417 	ldw	r4,-624(fp)
 304185c:	e0bf6217 	ldw	r2,-632(fp)
 3041860:	1006917a 	slli	r3,r2,5
 3041864:	e0bf6517 	ldw	r2,-620(fp)
 3041868:	1887883a 	add	r3,r3,r2
 304186c:	e0bf7b04 	addi	r2,fp,-532
 3041870:	10c5883a 	add	r2,r2,r3
 3041874:	10800003 	ldbu	r2,0(r2)
 3041878:	1007883a 	mov	r3,r2
 304187c:	e0bf6b04 	addi	r2,fp,-596
 3041880:	1105883a 	add	r2,r2,r4
 3041884:	10c00005 	stb	r3,0(r2)
 3041888:	e0bf6417 	ldw	r2,-624(fp)
 304188c:	10800044 	addi	r2,r2,1
 3041890:	e0bf6415 	stw	r2,-624(fp)
          for(j=0x09;j>0;j-=2)
            temp_name[k++]=Buffer[num_dw*DW+j];
        }
        else if(find_2e>=0x0e && find_2e <= 0x18)
        {
          for(j=find_2e-2;j>0x0d;j-=2)
 3041894:	e0bf6517 	ldw	r2,-620(fp)
 3041898:	10bfff84 	addi	r2,r2,-2
 304189c:	e0bf6515 	stw	r2,-620(fp)
 30418a0:	e0bf6517 	ldw	r2,-620(fp)
 30418a4:	10800388 	cmpgei	r2,r2,14
 30418a8:	103feb1e 	bne	r2,zero,3041858 <file_list+0x8c0>
            temp_name[k++]=Buffer[num_dw*DW+j];
          for(j=0x09;j>0;j-=2)
 30418ac:	00800244 	movi	r2,9
 30418b0:	e0bf6515 	stw	r2,-620(fp)
 30418b4:	00001206 	br	3041900 <file_list+0x968>
            temp_name[k++]=Buffer[num_dw*DW+j];
 30418b8:	e13f6417 	ldw	r4,-624(fp)
 30418bc:	e0bf6217 	ldw	r2,-632(fp)
 30418c0:	1006917a 	slli	r3,r2,5
 30418c4:	e0bf6517 	ldw	r2,-620(fp)
 30418c8:	1887883a 	add	r3,r3,r2
 30418cc:	e0bf7b04 	addi	r2,fp,-532
 30418d0:	10c5883a 	add	r2,r2,r3
 30418d4:	10800003 	ldbu	r2,0(r2)
 30418d8:	1007883a 	mov	r3,r2
 30418dc:	e0bf6b04 	addi	r2,fp,-596
 30418e0:	1105883a 	add	r2,r2,r4
 30418e4:	10c00005 	stb	r3,0(r2)
 30418e8:	e0bf6417 	ldw	r2,-624(fp)
 30418ec:	10800044 	addi	r2,r2,1
 30418f0:	e0bf6415 	stw	r2,-624(fp)
        }
        else if(find_2e>=0x0e && find_2e <= 0x18)
        {
          for(j=find_2e-2;j>0x0d;j-=2)
            temp_name[k++]=Buffer[num_dw*DW+j];
          for(j=0x09;j>0;j-=2)
 30418f4:	e0bf6517 	ldw	r2,-620(fp)
 30418f8:	10bfff84 	addi	r2,r2,-2
 30418fc:	e0bf6515 	stw	r2,-620(fp)
 3041900:	e0bf6517 	ldw	r2,-620(fp)
 3041904:	10800048 	cmpgei	r2,r2,1
 3041908:	103feb1e 	bne	r2,zero,30418b8 <file_list+0x920>
          for(j=0x18;j>0x0d;j-=2)
            temp_name[k++]=Buffer[num_dw*DW+j];
          for(j=0x09;j>0;j-=2)
            temp_name[k++]=Buffer[num_dw*DW+j];
        }
        else if(find_2e>=0x0e && find_2e <= 0x18)
 304190c:	00002506 	br	30419a4 <file_list+0xa0c>
          for(j=find_2e-2;j>0x0d;j-=2)
            temp_name[k++]=Buffer[num_dw*DW+j];
          for(j=0x09;j>0;j-=2)
            temp_name[k++]=Buffer[num_dw*DW+j];
        }
        else if(find_2e>0x01 && find_2e <= 0x09)
 3041910:	e0bf6117 	ldw	r2,-636(fp)
 3041914:	10800090 	cmplti	r2,r2,2
 3041918:	10001d1e 	bne	r2,zero,3041990 <file_list+0x9f8>
 304191c:	e0bf6117 	ldw	r2,-636(fp)
 3041920:	10800288 	cmpgei	r2,r2,10
 3041924:	10001a1e 	bne	r2,zero,3041990 <file_list+0x9f8>
        {
          for(j=find_2e-2;j>0;j-=2)
 3041928:	e0bf6117 	ldw	r2,-636(fp)
 304192c:	10bfff84 	addi	r2,r2,-2
 3041930:	e0bf6515 	stw	r2,-620(fp)
 3041934:	00001206 	br	3041980 <file_list+0x9e8>
            temp_name[k++]=Buffer[num_dw*DW+j];
 3041938:	e13f6417 	ldw	r4,-624(fp)
 304193c:	e0bf6217 	ldw	r2,-632(fp)
 3041940:	1006917a 	slli	r3,r2,5
 3041944:	e0bf6517 	ldw	r2,-620(fp)
 3041948:	1887883a 	add	r3,r3,r2
 304194c:	e0bf7b04 	addi	r2,fp,-532
 3041950:	10c5883a 	add	r2,r2,r3
 3041954:	10800003 	ldbu	r2,0(r2)
 3041958:	1007883a 	mov	r3,r2
 304195c:	e0bf6b04 	addi	r2,fp,-596
 3041960:	1105883a 	add	r2,r2,r4
 3041964:	10c00005 	stb	r3,0(r2)
 3041968:	e0bf6417 	ldw	r2,-624(fp)
 304196c:	10800044 	addi	r2,r2,1
 3041970:	e0bf6415 	stw	r2,-624(fp)
          for(j=0x09;j>0;j-=2)
            temp_name[k++]=Buffer[num_dw*DW+j];
        }
        else if(find_2e>0x01 && find_2e <= 0x09)
        {
          for(j=find_2e-2;j>0;j-=2)
 3041974:	e0bf6517 	ldw	r2,-620(fp)
 3041978:	10bfff84 	addi	r2,r2,-2
 304197c:	e0bf6515 	stw	r2,-620(fp)
 3041980:	e0bf6517 	ldw	r2,-620(fp)
 3041984:	10800048 	cmpgei	r2,r2,1
 3041988:	103feb1e 	bne	r2,zero,3041938 <file_list+0x9a0>
          for(j=find_2e-2;j>0x0d;j-=2)
            temp_name[k++]=Buffer[num_dw*DW+j];
          for(j=0x09;j>0;j-=2)
            temp_name[k++]=Buffer[num_dw*DW+j];
        }
        else if(find_2e>0x01 && find_2e <= 0x09)
 304198c:	00000506 	br	30419a4 <file_list+0xa0c>
        {
          for(j=find_2e-2;j>0;j-=2)
            temp_name[k++]=Buffer[num_dw*DW+j];
        }
        else if(find_2e==0x01)
 3041990:	e0bf6117 	ldw	r2,-636(fp)
 3041994:	10800058 	cmpnei	r2,r2,1
 3041998:	1000021e 	bne	r2,zero,30419a4 <file_list+0xa0c>
            flag_01=1;
 304199c:	00800044 	movi	r2,1
 30419a0:	e0bf6315 	stw	r2,-628(fp)
        if (num_dw+1==16)
 30419a4:	e0bf6217 	ldw	r2,-632(fp)
 30419a8:	108003d8 	cmpnei	r2,r2,15
 30419ac:	1000181e 	bne	r2,zero,3041a10 <file_list+0xa78>
        {
          s_num++;
 30419b0:	e0bf5c17 	ldw	r2,-656(fp)
 30419b4:	10800044 	addi	r2,r2,1
 30419b8:	e0bf5c15 	stw	r2,-656(fp)
          SD_read_lba(Buffer,sector+s_num,1);
 30419bc:	e0ff6717 	ldw	r3,-612(fp)
 30419c0:	e0bf5c17 	ldw	r2,-656(fp)
 30419c4:	188b883a 	add	r5,r3,r2
 30419c8:	e13f7b04 	addi	r4,fp,-532
 30419cc:	01800044 	movi	r6,1
 30419d0:	30439440 	call	3043944 <SD_read_lba>
          num_dw=0;    
 30419d4:	e03f6215 	stw	zero,-632(fp)
          if(Buffer[(num_dw)*DW+0xb]!=0x0f)
 30419d8:	e0bf6217 	ldw	r2,-632(fp)
 30419dc:	1004917a 	slli	r2,r2,5
 30419e0:	10c002c4 	addi	r3,r2,11
 30419e4:	e0bf7b04 	addi	r2,fp,-532
 30419e8:	10c5883a 	add	r2,r2,r3
 30419ec:	10800003 	ldbu	r2,0(r2)
 30419f0:	10803fcc 	andi	r2,r2,255
 30419f4:	108003e0 	cmpeqi	r2,r2,15
 30419f8:	1000021e 	bne	r2,zero,3041a04 <file_list+0xa6c>
            flag_done =1;
 30419fc:	00800044 	movi	r2,1
 3041a00:	e0bf6015 	stw	r2,-640(fp)
          num_dw=-1;           
 3041a04:	00bfffc4 	movi	r2,-1
 3041a08:	e0bf6215 	stw	r2,-632(fp)
 3041a0c:	00009106 	br	3041c54 <file_list+0xcbc>
        }
        else if(Buffer[(num_dw+1)*DW+0xb]!=0x0f)
 3041a10:	e0bf6217 	ldw	r2,-632(fp)
 3041a14:	1004917a 	slli	r2,r2,5
 3041a18:	10c00ac4 	addi	r3,r2,43
 3041a1c:	e0bf7b04 	addi	r2,fp,-532
 3041a20:	10c5883a 	add	r2,r2,r3
 3041a24:	10800003 	ldbu	r2,0(r2)
 3041a28:	10803fcc 	andi	r2,r2,255
 3041a2c:	108003e0 	cmpeqi	r2,r2,15
 3041a30:	1000881e 	bne	r2,zero,3041c54 <file_list+0xcbc>
        { 
          num_dw++;
 3041a34:	e0bf6217 	ldw	r2,-632(fp)
 3041a38:	10800044 	addi	r2,r2,1
 3041a3c:	e0bf6215 	stw	r2,-632(fp)
          flag_done =1; 
 3041a40:	00800044 	movi	r2,1
 3041a44:	e0bf6015 	stw	r2,-640(fp)
            }
          } 
        }
        j++;
      }
      if(find_2e!=0 && k==0 && flag_01==0)
 3041a48:	00008206 	br	3041c54 <file_list+0xcbc>
        { 
          num_dw++;
          flag_done =1; 
        }       
      }
      else if((flag_done!=1 && k != 0) || (flag_done!=1 && flag_01==1) )
 3041a4c:	e0bf6017 	ldw	r2,-640(fp)
 3041a50:	10800060 	cmpeqi	r2,r2,1
 3041a54:	1000031e 	bne	r2,zero,3041a64 <file_list+0xacc>
 3041a58:	e0bf6417 	ldw	r2,-624(fp)
 3041a5c:	1004c03a 	cmpne	r2,r2,zero
 3041a60:	1000061e 	bne	r2,zero,3041a7c <file_list+0xae4>
 3041a64:	e0bf6017 	ldw	r2,-640(fp)
 3041a68:	10800060 	cmpeqi	r2,r2,1
 3041a6c:	1000791e 	bne	r2,zero,3041c54 <file_list+0xcbc>
 3041a70:	e0bf6317 	ldw	r2,-628(fp)
 3041a74:	10800058 	cmpnei	r2,r2,1
 3041a78:	1000761e 	bne	r2,zero,3041c54 <file_list+0xcbc>
      {
        temp_name[k++]=Buffer[num_dw*DW+0x1e];
 3041a7c:	e13f6417 	ldw	r4,-624(fp)
 3041a80:	e0bf6217 	ldw	r2,-632(fp)
 3041a84:	1004917a 	slli	r2,r2,5
 3041a88:	10c00784 	addi	r3,r2,30
 3041a8c:	e0bf7b04 	addi	r2,fp,-532
 3041a90:	10c5883a 	add	r2,r2,r3
 3041a94:	10800003 	ldbu	r2,0(r2)
 3041a98:	1007883a 	mov	r3,r2
 3041a9c:	e0bf6b04 	addi	r2,fp,-596
 3041aa0:	1105883a 	add	r2,r2,r4
 3041aa4:	10c00005 	stb	r3,0(r2)
 3041aa8:	e0bf6417 	ldw	r2,-624(fp)
 3041aac:	10800044 	addi	r2,r2,1
 3041ab0:	e0bf6415 	stw	r2,-624(fp)
        temp_name[k++]=Buffer[num_dw*DW+0x1c];
 3041ab4:	e13f6417 	ldw	r4,-624(fp)
 3041ab8:	e0bf6217 	ldw	r2,-632(fp)
 3041abc:	1004917a 	slli	r2,r2,5
 3041ac0:	10c00704 	addi	r3,r2,28
 3041ac4:	e0bf7b04 	addi	r2,fp,-532
 3041ac8:	10c5883a 	add	r2,r2,r3
 3041acc:	10800003 	ldbu	r2,0(r2)
 3041ad0:	1007883a 	mov	r3,r2
 3041ad4:	e0bf6b04 	addi	r2,fp,-596
 3041ad8:	1105883a 	add	r2,r2,r4
 3041adc:	10c00005 	stb	r3,0(r2)
 3041ae0:	e0bf6417 	ldw	r2,-624(fp)
 3041ae4:	10800044 	addi	r2,r2,1
 3041ae8:	e0bf6415 	stw	r2,-624(fp)
        for(j=0x18;j>0x0d;j-=2)
 3041aec:	00800604 	movi	r2,24
 3041af0:	e0bf6515 	stw	r2,-620(fp)
 3041af4:	00001206 	br	3041b40 <file_list+0xba8>
          temp_name[k++]=Buffer[num_dw*DW+j];
 3041af8:	e13f6417 	ldw	r4,-624(fp)
 3041afc:	e0bf6217 	ldw	r2,-632(fp)
 3041b00:	1006917a 	slli	r3,r2,5
 3041b04:	e0bf6517 	ldw	r2,-620(fp)
 3041b08:	1887883a 	add	r3,r3,r2
 3041b0c:	e0bf7b04 	addi	r2,fp,-532
 3041b10:	10c5883a 	add	r2,r2,r3
 3041b14:	10800003 	ldbu	r2,0(r2)
 3041b18:	1007883a 	mov	r3,r2
 3041b1c:	e0bf6b04 	addi	r2,fp,-596
 3041b20:	1105883a 	add	r2,r2,r4
 3041b24:	10c00005 	stb	r3,0(r2)
 3041b28:	e0bf6417 	ldw	r2,-624(fp)
 3041b2c:	10800044 	addi	r2,r2,1
 3041b30:	e0bf6415 	stw	r2,-624(fp)
      }
      else if((flag_done!=1 && k != 0) || (flag_done!=1 && flag_01==1) )
      {
        temp_name[k++]=Buffer[num_dw*DW+0x1e];
        temp_name[k++]=Buffer[num_dw*DW+0x1c];
        for(j=0x18;j>0x0d;j-=2)
 3041b34:	e0bf6517 	ldw	r2,-620(fp)
 3041b38:	10bfff84 	addi	r2,r2,-2
 3041b3c:	e0bf6515 	stw	r2,-620(fp)
 3041b40:	e0bf6517 	ldw	r2,-620(fp)
 3041b44:	10800388 	cmpgei	r2,r2,14
 3041b48:	103feb1e 	bne	r2,zero,3041af8 <file_list+0xb60>
          temp_name[k++]=Buffer[num_dw*DW+j];
        for(j=0x09;j>0;j-=2)
 3041b4c:	00800244 	movi	r2,9
 3041b50:	e0bf6515 	stw	r2,-620(fp)
 3041b54:	00001206 	br	3041ba0 <file_list+0xc08>
          temp_name[k++]=Buffer[num_dw*DW+j];
 3041b58:	e13f6417 	ldw	r4,-624(fp)
 3041b5c:	e0bf6217 	ldw	r2,-632(fp)
 3041b60:	1006917a 	slli	r3,r2,5
 3041b64:	e0bf6517 	ldw	r2,-620(fp)
 3041b68:	1887883a 	add	r3,r3,r2
 3041b6c:	e0bf7b04 	addi	r2,fp,-532
 3041b70:	10c5883a 	add	r2,r2,r3
 3041b74:	10800003 	ldbu	r2,0(r2)
 3041b78:	1007883a 	mov	r3,r2
 3041b7c:	e0bf6b04 	addi	r2,fp,-596
 3041b80:	1105883a 	add	r2,r2,r4
 3041b84:	10c00005 	stb	r3,0(r2)
 3041b88:	e0bf6417 	ldw	r2,-624(fp)
 3041b8c:	10800044 	addi	r2,r2,1
 3041b90:	e0bf6415 	stw	r2,-624(fp)
      {
        temp_name[k++]=Buffer[num_dw*DW+0x1e];
        temp_name[k++]=Buffer[num_dw*DW+0x1c];
        for(j=0x18;j>0x0d;j-=2)
          temp_name[k++]=Buffer[num_dw*DW+j];
        for(j=0x09;j>0;j-=2)
 3041b94:	e0bf6517 	ldw	r2,-620(fp)
 3041b98:	10bfff84 	addi	r2,r2,-2
 3041b9c:	e0bf6515 	stw	r2,-620(fp)
 3041ba0:	e0bf6517 	ldw	r2,-620(fp)
 3041ba4:	10800048 	cmpgei	r2,r2,1
 3041ba8:	103feb1e 	bne	r2,zero,3041b58 <file_list+0xbc0>
          temp_name[k++]=Buffer[num_dw*DW+j];
        if (num_dw+1==16)
 3041bac:	e0bf6217 	ldw	r2,-632(fp)
 3041bb0:	108003d8 	cmpnei	r2,r2,15
 3041bb4:	1000191e 	bne	r2,zero,3041c1c <file_list+0xc84>
        {
          s_num++;
 3041bb8:	e0bf5c17 	ldw	r2,-656(fp)
 3041bbc:	10800044 	addi	r2,r2,1
 3041bc0:	e0bf5c15 	stw	r2,-656(fp)
          SD_read_lba(Buffer,sector+s_num,1);
 3041bc4:	e0ff6717 	ldw	r3,-612(fp)
 3041bc8:	e0bf5c17 	ldw	r2,-656(fp)
 3041bcc:	188b883a 	add	r5,r3,r2
 3041bd0:	e13f7b04 	addi	r4,fp,-532
 3041bd4:	01800044 	movi	r6,1
 3041bd8:	30439440 	call	3043944 <SD_read_lba>
          num_dw=0;    
 3041bdc:	e03f6215 	stw	zero,-632(fp)
          if(Buffer[(num_dw)*DW+0xb]!=0x0f)
 3041be0:	e0bf6217 	ldw	r2,-632(fp)
 3041be4:	1004917a 	slli	r2,r2,5
 3041be8:	10c002c4 	addi	r3,r2,11
 3041bec:	e0bf7b04 	addi	r2,fp,-532
 3041bf0:	10c5883a 	add	r2,r2,r3
 3041bf4:	10800003 	ldbu	r2,0(r2)
 3041bf8:	10803fcc 	andi	r2,r2,255
 3041bfc:	108003e0 	cmpeqi	r2,r2,15
 3041c00:	1000031e 	bne	r2,zero,3041c10 <file_list+0xc78>
            flag_done =1;
 3041c04:	00800044 	movi	r2,1
 3041c08:	e0bf6015 	stw	r2,-640(fp)
 3041c0c:	00001106 	br	3041c54 <file_list+0xcbc>
          else
            num_dw=-1;         
 3041c10:	00bfffc4 	movi	r2,-1
 3041c14:	e0bf6215 	stw	r2,-632(fp)
 3041c18:	00000e06 	br	3041c54 <file_list+0xcbc>
        }
        else if(Buffer[(num_dw+1)*DW+0xb]!=0x0f)
 3041c1c:	e0bf6217 	ldw	r2,-632(fp)
 3041c20:	1004917a 	slli	r2,r2,5
 3041c24:	10c00ac4 	addi	r3,r2,43
 3041c28:	e0bf7b04 	addi	r2,fp,-532
 3041c2c:	10c5883a 	add	r2,r2,r3
 3041c30:	10800003 	ldbu	r2,0(r2)
 3041c34:	10803fcc 	andi	r2,r2,255
 3041c38:	108003e0 	cmpeqi	r2,r2,15
 3041c3c:	1000051e 	bne	r2,zero,3041c54 <file_list+0xcbc>
        { 
          num_dw++;
 3041c40:	e0bf6217 	ldw	r2,-632(fp)
 3041c44:	10800044 	addi	r2,r2,1
 3041c48:	e0bf6215 	stw	r2,-632(fp)
          flag_done =1; 
 3041c4c:	00800044 	movi	r2,1
 3041c50:	e0bf6015 	stw	r2,-640(fp)
        }       
      }
      if(flag_done ==1)
 3041c54:	e0bf6017 	ldw	r2,-640(fp)
 3041c58:	10800058 	cmpnei	r2,r2,1
 3041c5c:	1001421e 	bne	r2,zero,3042168 <file_list+0x11d0>
      {
        
        for(i=0; i<3; i++)
 3041c60:	e03f6615 	stw	zero,-616(fp)
 3041c64:	00001006 	br	3041ca8 <file_list+0xd10>
          file_type[i]=(char)Buffer[(num_dw)*DW+8+i];
 3041c68:	e13f6617 	ldw	r4,-616(fp)
 3041c6c:	e0bf6217 	ldw	r2,-632(fp)
 3041c70:	1006917a 	slli	r3,r2,5
 3041c74:	e0bf6617 	ldw	r2,-616(fp)
 3041c78:	1885883a 	add	r2,r3,r2
 3041c7c:	10c00204 	addi	r3,r2,8
 3041c80:	e0bf7b04 	addi	r2,fp,-532
 3041c84:	10c5883a 	add	r2,r2,r3
 3041c88:	10800003 	ldbu	r2,0(r2)
 3041c8c:	1007883a 	mov	r3,r2
 3041c90:	e0bf6804 	addi	r2,fp,-608
 3041c94:	1105883a 	add	r2,r2,r4
 3041c98:	10c00005 	stb	r3,0(r2)
        }       
      }
      if(flag_done ==1)
      {
        
        for(i=0; i<3; i++)
 3041c9c:	e0bf6617 	ldw	r2,-616(fp)
 3041ca0:	10800044 	addi	r2,r2,1
 3041ca4:	e0bf6615 	stw	r2,-616(fp)
 3041ca8:	e0bf6617 	ldw	r2,-616(fp)
 3041cac:	108000d0 	cmplti	r2,r2,3
 3041cb0:	103fed1e 	bne	r2,zero,3041c68 <file_list+0xcd0>
          file_type[i]=(char)Buffer[(num_dw)*DW+8+i];
        if(strcmp(file_type,f_wav)==0)
 3041cb4:	e13f6804 	addi	r4,fp,-608
 3041cb8:	e17f6904 	addi	r5,fp,-604
 3041cbc:	3044aa80 	call	3044aa8 <strcmp>
 3041cc0:	1004c03a 	cmpne	r2,r2,zero
 3041cc4:	1000951e 	bne	r2,zero,3041f1c <file_list+0xf84>
        {
          for(j=k-1;j>=0;j--)
 3041cc8:	e0bf6417 	ldw	r2,-624(fp)
 3041ccc:	10bfffc4 	addi	r2,r2,-1
 3041cd0:	e0bf6515 	stw	r2,-620(fp)
 3041cd4:	00001306 	br	3041d24 <file_list+0xd8c>
            music[*m_num].m_name[k-1-j]=temp_name[j];
 3041cd8:	e0bffd17 	ldw	r2,-12(fp)
 3041cdc:	10800017 	ldw	r2,0(r2)
 3041ce0:	10800e24 	muli	r2,r2,56
 3041ce4:	1007883a 	mov	r3,r2
 3041ce8:	e0bffb17 	ldw	r2,-20(fp)
 3041cec:	188b883a 	add	r5,r3,r2
 3041cf0:	e0ff6417 	ldw	r3,-624(fp)
 3041cf4:	e0bf6517 	ldw	r2,-620(fp)
 3041cf8:	1885c83a 	sub	r2,r3,r2
 3041cfc:	113fffc4 	addi	r4,r2,-1
 3041d00:	e0ff6517 	ldw	r3,-620(fp)
 3041d04:	e0bf6b04 	addi	r2,fp,-596
 3041d08:	10c5883a 	add	r2,r2,r3
 3041d0c:	10c00003 	ldbu	r3,0(r2)
 3041d10:	2905883a 	add	r2,r5,r4
 3041d14:	10c00005 	stb	r3,0(r2)
        
        for(i=0; i<3; i++)
          file_type[i]=(char)Buffer[(num_dw)*DW+8+i];
        if(strcmp(file_type,f_wav)==0)
        {
          for(j=k-1;j>=0;j--)
 3041d18:	e0bf6517 	ldw	r2,-620(fp)
 3041d1c:	10bfffc4 	addi	r2,r2,-1
 3041d20:	e0bf6515 	stw	r2,-620(fp)
 3041d24:	e0bf6517 	ldw	r2,-620(fp)
 3041d28:	1004403a 	cmpge	r2,r2,zero
 3041d2c:	103fea1e 	bne	r2,zero,3041cd8 <file_list+0xd40>
            music[*m_num].m_name[k-1-j]=temp_name[j];
          if(k<32)
 3041d30:	e0bf6417 	ldw	r2,-624(fp)
 3041d34:	10800808 	cmpgei	r2,r2,32
 3041d38:	1000141e 	bne	r2,zero,3041d8c <file_list+0xdf4>
            for(j=k;j<32;j++)
 3041d3c:	e0bf6417 	ldw	r2,-624(fp)
 3041d40:	e0bf6515 	stw	r2,-620(fp)
 3041d44:	00000d06 	br	3041d7c <file_list+0xde4>
              music[*m_num].m_name[j]=' ';
 3041d48:	e0bffd17 	ldw	r2,-12(fp)
 3041d4c:	10800017 	ldw	r2,0(r2)
 3041d50:	10800e24 	muli	r2,r2,56
 3041d54:	1007883a 	mov	r3,r2
 3041d58:	e0bffb17 	ldw	r2,-20(fp)
 3041d5c:	1887883a 	add	r3,r3,r2
 3041d60:	e0bf6517 	ldw	r2,-620(fp)
 3041d64:	1887883a 	add	r3,r3,r2
 3041d68:	00800804 	movi	r2,32
 3041d6c:	18800005 	stb	r2,0(r3)
        if(strcmp(file_type,f_wav)==0)
        {
          for(j=k-1;j>=0;j--)
            music[*m_num].m_name[k-1-j]=temp_name[j];
          if(k<32)
            for(j=k;j<32;j++)
 3041d70:	e0bf6517 	ldw	r2,-620(fp)
 3041d74:	10800044 	addi	r2,r2,1
 3041d78:	e0bf6515 	stw	r2,-620(fp)
 3041d7c:	e0bf6517 	ldw	r2,-620(fp)
 3041d80:	10800810 	cmplti	r2,r2,32
 3041d84:	103ff01e 	bne	r2,zero,3041d48 <file_list+0xdb0>
 3041d88:	00003306 	br	3041e58 <file_list+0xec0>
              music[*m_num].m_name[j]=' ';
          else if(k>32 && k<48)
 3041d8c:	e0bf6417 	ldw	r2,-624(fp)
 3041d90:	10800850 	cmplti	r2,r2,33
 3041d94:	1000171e 	bne	r2,zero,3041df4 <file_list+0xe5c>
 3041d98:	e0bf6417 	ldw	r2,-624(fp)
 3041d9c:	10800c08 	cmpgei	r2,r2,48
 3041da0:	1000141e 	bne	r2,zero,3041df4 <file_list+0xe5c>
            for(j=k;j<48;j++)
 3041da4:	e0bf6417 	ldw	r2,-624(fp)
 3041da8:	e0bf6515 	stw	r2,-620(fp)
 3041dac:	00000d06 	br	3041de4 <file_list+0xe4c>
              music[*m_num].m_name[j]=' ';
 3041db0:	e0bffd17 	ldw	r2,-12(fp)
 3041db4:	10800017 	ldw	r2,0(r2)
 3041db8:	10800e24 	muli	r2,r2,56
 3041dbc:	1007883a 	mov	r3,r2
 3041dc0:	e0bffb17 	ldw	r2,-20(fp)
 3041dc4:	1887883a 	add	r3,r3,r2
 3041dc8:	e0bf6517 	ldw	r2,-620(fp)
 3041dcc:	1887883a 	add	r3,r3,r2
 3041dd0:	00800804 	movi	r2,32
 3041dd4:	18800005 	stb	r2,0(r3)
            music[*m_num].m_name[k-1-j]=temp_name[j];
          if(k<32)
            for(j=k;j<32;j++)
              music[*m_num].m_name[j]=' ';
          else if(k>32 && k<48)
            for(j=k;j<48;j++)
 3041dd8:	e0bf6517 	ldw	r2,-620(fp)
 3041ddc:	10800044 	addi	r2,r2,1
 3041de0:	e0bf6515 	stw	r2,-620(fp)
 3041de4:	e0bf6517 	ldw	r2,-620(fp)
 3041de8:	10800c10 	cmplti	r2,r2,48
 3041dec:	103ff01e 	bne	r2,zero,3041db0 <file_list+0xe18>
          for(j=k-1;j>=0;j--)
            music[*m_num].m_name[k-1-j]=temp_name[j];
          if(k<32)
            for(j=k;j<32;j++)
              music[*m_num].m_name[j]=' ';
          else if(k>32 && k<48)
 3041df0:	00001906 	br	3041e58 <file_list+0xec0>
            for(j=k;j<48;j++)
              music[*m_num].m_name[j]=' ';
          else if(k>48 && k<64)
 3041df4:	e0bf6417 	ldw	r2,-624(fp)
 3041df8:	10800c50 	cmplti	r2,r2,49
 3041dfc:	1000161e 	bne	r2,zero,3041e58 <file_list+0xec0>
 3041e00:	e0bf6417 	ldw	r2,-624(fp)
 3041e04:	10801008 	cmpgei	r2,r2,64
 3041e08:	1000131e 	bne	r2,zero,3041e58 <file_list+0xec0>
            for(j=k;j<64;j++)
 3041e0c:	e0bf6417 	ldw	r2,-624(fp)
 3041e10:	e0bf6515 	stw	r2,-620(fp)
 3041e14:	00000d06 	br	3041e4c <file_list+0xeb4>
              music[*m_num].m_name[j]=' ';
 3041e18:	e0bffd17 	ldw	r2,-12(fp)
 3041e1c:	10800017 	ldw	r2,0(r2)
 3041e20:	10800e24 	muli	r2,r2,56
 3041e24:	1007883a 	mov	r3,r2
 3041e28:	e0bffb17 	ldw	r2,-20(fp)
 3041e2c:	1887883a 	add	r3,r3,r2
 3041e30:	e0bf6517 	ldw	r2,-620(fp)
 3041e34:	1887883a 	add	r3,r3,r2
 3041e38:	00800804 	movi	r2,32
 3041e3c:	18800005 	stb	r2,0(r3)
              music[*m_num].m_name[j]=' ';
          else if(k>32 && k<48)
            for(j=k;j<48;j++)
              music[*m_num].m_name[j]=' ';
          else if(k>48 && k<64)
            for(j=k;j<64;j++)
 3041e40:	e0bf6517 	ldw	r2,-620(fp)
 3041e44:	10800044 	addi	r2,r2,1
 3041e48:	e0bf6515 	stw	r2,-620(fp)
 3041e4c:	e0bf6517 	ldw	r2,-620(fp)
 3041e50:	10801010 	cmplti	r2,r2,64
 3041e54:	103ff01e 	bne	r2,zero,3041e18 <file_list+0xe80>
              music[*m_num].m_name[j]=' ';
          if(k==32 || k==64 || k==96)
 3041e58:	e0bf6417 	ldw	r2,-624(fp)
 3041e5c:	10800820 	cmpeqi	r2,r2,32
 3041e60:	1000061e 	bne	r2,zero,3041e7c <file_list+0xee4>
 3041e64:	e0bf6417 	ldw	r2,-624(fp)
 3041e68:	10801020 	cmpeqi	r2,r2,64
 3041e6c:	1000031e 	bne	r2,zero,3041e7c <file_list+0xee4>
 3041e70:	e0bf6417 	ldw	r2,-624(fp)
 3041e74:	10801818 	cmpnei	r2,r2,96
 3041e78:	1000021e 	bne	r2,zero,3041e84 <file_list+0xeec>
            j=k;
 3041e7c:	e0bf6417 	ldw	r2,-624(fp)
 3041e80:	e0bf6515 	stw	r2,-620(fp)
          music[*m_num].m_name[j]='\0';
 3041e84:	e0bffd17 	ldw	r2,-12(fp)
 3041e88:	10800017 	ldw	r2,0(r2)
 3041e8c:	10800e24 	muli	r2,r2,56
 3041e90:	1007883a 	mov	r3,r2
 3041e94:	e0bffb17 	ldw	r2,-20(fp)
 3041e98:	1887883a 	add	r3,r3,r2
 3041e9c:	e0bf6517 	ldw	r2,-620(fp)
 3041ea0:	1885883a 	add	r2,r3,r2
 3041ea4:	10000005 	stb	zero,0(r2)
          music[*m_num].cluster =(Buffer[num_dw*DW+0x1b]<<8)|Buffer[num_dw*DW+0x1a];
 3041ea8:	e0bffd17 	ldw	r2,-12(fp)
 3041eac:	10800017 	ldw	r2,0(r2)
 3041eb0:	10800e24 	muli	r2,r2,56
 3041eb4:	1007883a 	mov	r3,r2
 3041eb8:	e0bffb17 	ldw	r2,-20(fp)
 3041ebc:	188b883a 	add	r5,r3,r2
 3041ec0:	e0bf6217 	ldw	r2,-632(fp)
 3041ec4:	1004917a 	slli	r2,r2,5
 3041ec8:	10c006c4 	addi	r3,r2,27
 3041ecc:	e0bf7b04 	addi	r2,fp,-532
 3041ed0:	10c5883a 	add	r2,r2,r3
 3041ed4:	10800003 	ldbu	r2,0(r2)
 3041ed8:	10803fcc 	andi	r2,r2,255
 3041edc:	1008923a 	slli	r4,r2,8
 3041ee0:	e0bf6217 	ldw	r2,-632(fp)
 3041ee4:	1004917a 	slli	r2,r2,5
 3041ee8:	10c00684 	addi	r3,r2,26
 3041eec:	e0bf7b04 	addi	r2,fp,-532
 3041ef0:	10c5883a 	add	r2,r2,r3
 3041ef4:	10800003 	ldbu	r2,0(r2)
 3041ef8:	10803fcc 	andi	r2,r2,255
 3041efc:	2084b03a 	or	r2,r4,r2
 3041f00:	28800d15 	stw	r2,52(r5)
          (*m_num)++;
 3041f04:	e0bffd17 	ldw	r2,-12(fp)
 3041f08:	10800017 	ldw	r2,0(r2)
 3041f0c:	10c00044 	addi	r3,r2,1
 3041f10:	e0bffd17 	ldw	r2,-12(fp)
 3041f14:	10c00015 	stw	r3,0(r2)
 3041f18:	00008e06 	br	3042154 <file_list+0x11bc>
        }
        else if(strcmp(file_type,f_lrc)==0)
 3041f1c:	e13f6804 	addi	r4,fp,-608
 3041f20:	e17f6a04 	addi	r5,fp,-600
 3041f24:	3044aa80 	call	3044aa8 <strcmp>
 3041f28:	1004c03a 	cmpne	r2,r2,zero
 3041f2c:	1000891e 	bne	r2,zero,3042154 <file_list+0x11bc>
        {
          for(j=k-1;j>=0;j--)
 3041f30:	e0bf6417 	ldw	r2,-624(fp)
 3041f34:	10bfffc4 	addi	r2,r2,-1
 3041f38:	e0bf6515 	stw	r2,-620(fp)
 3041f3c:	00001306 	br	3041f8c <file_list+0xff4>
            lyric[*l_num].l_name[k-1-j]=temp_name[j];
 3041f40:	e0bffe17 	ldw	r2,-8(fp)
 3041f44:	10800017 	ldw	r2,0(r2)
 3041f48:	10800e24 	muli	r2,r2,56
 3041f4c:	1007883a 	mov	r3,r2
 3041f50:	e0bffc17 	ldw	r2,-16(fp)
 3041f54:	188b883a 	add	r5,r3,r2
 3041f58:	e0ff6417 	ldw	r3,-624(fp)
 3041f5c:	e0bf6517 	ldw	r2,-620(fp)
 3041f60:	1885c83a 	sub	r2,r3,r2
 3041f64:	113fffc4 	addi	r4,r2,-1
 3041f68:	e0ff6517 	ldw	r3,-620(fp)
 3041f6c:	e0bf6b04 	addi	r2,fp,-596
 3041f70:	10c5883a 	add	r2,r2,r3
 3041f74:	10c00003 	ldbu	r3,0(r2)
 3041f78:	2905883a 	add	r2,r5,r4
 3041f7c:	10c00005 	stb	r3,0(r2)
          music[*m_num].cluster =(Buffer[num_dw*DW+0x1b]<<8)|Buffer[num_dw*DW+0x1a];
          (*m_num)++;
        }
        else if(strcmp(file_type,f_lrc)==0)
        {
          for(j=k-1;j>=0;j--)
 3041f80:	e0bf6517 	ldw	r2,-620(fp)
 3041f84:	10bfffc4 	addi	r2,r2,-1
 3041f88:	e0bf6515 	stw	r2,-620(fp)
 3041f8c:	e0bf6517 	ldw	r2,-620(fp)
 3041f90:	1004403a 	cmpge	r2,r2,zero
 3041f94:	103fea1e 	bne	r2,zero,3041f40 <file_list+0xfa8>
            lyric[*l_num].l_name[k-1-j]=temp_name[j];
          if(k<32)
 3041f98:	e0bf6417 	ldw	r2,-624(fp)
 3041f9c:	10800808 	cmpgei	r2,r2,32
 3041fa0:	1000141e 	bne	r2,zero,3041ff4 <file_list+0x105c>
            for(j=k;j<32;j++)
 3041fa4:	e0bf6417 	ldw	r2,-624(fp)
 3041fa8:	e0bf6515 	stw	r2,-620(fp)
 3041fac:	00000d06 	br	3041fe4 <file_list+0x104c>
              lyric[*l_num].l_name[j]=' ';
 3041fb0:	e0bffe17 	ldw	r2,-8(fp)
 3041fb4:	10800017 	ldw	r2,0(r2)
 3041fb8:	10800e24 	muli	r2,r2,56
 3041fbc:	1007883a 	mov	r3,r2
 3041fc0:	e0bffc17 	ldw	r2,-16(fp)
 3041fc4:	1887883a 	add	r3,r3,r2
 3041fc8:	e0bf6517 	ldw	r2,-620(fp)
 3041fcc:	1887883a 	add	r3,r3,r2
 3041fd0:	00800804 	movi	r2,32
 3041fd4:	18800005 	stb	r2,0(r3)
        else if(strcmp(file_type,f_lrc)==0)
        {
          for(j=k-1;j>=0;j--)
            lyric[*l_num].l_name[k-1-j]=temp_name[j];
          if(k<32)
            for(j=k;j<32;j++)
 3041fd8:	e0bf6517 	ldw	r2,-620(fp)
 3041fdc:	10800044 	addi	r2,r2,1
 3041fe0:	e0bf6515 	stw	r2,-620(fp)
 3041fe4:	e0bf6517 	ldw	r2,-620(fp)
 3041fe8:	10800810 	cmplti	r2,r2,32
 3041fec:	103ff01e 	bne	r2,zero,3041fb0 <file_list+0x1018>
 3041ff0:	00003306 	br	30420c0 <file_list+0x1128>
              lyric[*l_num].l_name[j]=' ';
          else if(k>32 && k<48)
 3041ff4:	e0bf6417 	ldw	r2,-624(fp)
 3041ff8:	10800850 	cmplti	r2,r2,33
 3041ffc:	1000171e 	bne	r2,zero,304205c <file_list+0x10c4>
 3042000:	e0bf6417 	ldw	r2,-624(fp)
 3042004:	10800c08 	cmpgei	r2,r2,48
 3042008:	1000141e 	bne	r2,zero,304205c <file_list+0x10c4>
            for(j=k;j<48;j++)
 304200c:	e0bf6417 	ldw	r2,-624(fp)
 3042010:	e0bf6515 	stw	r2,-620(fp)
 3042014:	00000d06 	br	304204c <file_list+0x10b4>
              lyric[*l_num].l_name[j]=' ';
 3042018:	e0bffe17 	ldw	r2,-8(fp)
 304201c:	10800017 	ldw	r2,0(r2)
 3042020:	10800e24 	muli	r2,r2,56
 3042024:	1007883a 	mov	r3,r2
 3042028:	e0bffc17 	ldw	r2,-16(fp)
 304202c:	1887883a 	add	r3,r3,r2
 3042030:	e0bf6517 	ldw	r2,-620(fp)
 3042034:	1887883a 	add	r3,r3,r2
 3042038:	00800804 	movi	r2,32
 304203c:	18800005 	stb	r2,0(r3)
            lyric[*l_num].l_name[k-1-j]=temp_name[j];
          if(k<32)
            for(j=k;j<32;j++)
              lyric[*l_num].l_name[j]=' ';
          else if(k>32 && k<48)
            for(j=k;j<48;j++)
 3042040:	e0bf6517 	ldw	r2,-620(fp)
 3042044:	10800044 	addi	r2,r2,1
 3042048:	e0bf6515 	stw	r2,-620(fp)
 304204c:	e0bf6517 	ldw	r2,-620(fp)
 3042050:	10800c10 	cmplti	r2,r2,48
 3042054:	103ff01e 	bne	r2,zero,3042018 <file_list+0x1080>
          for(j=k-1;j>=0;j--)
            lyric[*l_num].l_name[k-1-j]=temp_name[j];
          if(k<32)
            for(j=k;j<32;j++)
              lyric[*l_num].l_name[j]=' ';
          else if(k>32 && k<48)
 3042058:	00001906 	br	30420c0 <file_list+0x1128>
            for(j=k;j<48;j++)
              lyric[*l_num].l_name[j]=' ';
          else if(k>48 && k<64)
 304205c:	e0bf6417 	ldw	r2,-624(fp)
 3042060:	10800c50 	cmplti	r2,r2,49
 3042064:	1000161e 	bne	r2,zero,30420c0 <file_list+0x1128>
 3042068:	e0bf6417 	ldw	r2,-624(fp)
 304206c:	10801008 	cmpgei	r2,r2,64
 3042070:	1000131e 	bne	r2,zero,30420c0 <file_list+0x1128>
            for(j=k;j<64;j++)
 3042074:	e0bf6417 	ldw	r2,-624(fp)
 3042078:	e0bf6515 	stw	r2,-620(fp)
 304207c:	00000d06 	br	30420b4 <file_list+0x111c>
              lyric[*l_num].l_name[j]=' ';
 3042080:	e0bffe17 	ldw	r2,-8(fp)
 3042084:	10800017 	ldw	r2,0(r2)
 3042088:	10800e24 	muli	r2,r2,56
 304208c:	1007883a 	mov	r3,r2
 3042090:	e0bffc17 	ldw	r2,-16(fp)
 3042094:	1887883a 	add	r3,r3,r2
 3042098:	e0bf6517 	ldw	r2,-620(fp)
 304209c:	1887883a 	add	r3,r3,r2
 30420a0:	00800804 	movi	r2,32
 30420a4:	18800005 	stb	r2,0(r3)
              lyric[*l_num].l_name[j]=' ';
          else if(k>32 && k<48)
            for(j=k;j<48;j++)
              lyric[*l_num].l_name[j]=' ';
          else if(k>48 && k<64)
            for(j=k;j<64;j++)
 30420a8:	e0bf6517 	ldw	r2,-620(fp)
 30420ac:	10800044 	addi	r2,r2,1
 30420b0:	e0bf6515 	stw	r2,-620(fp)
 30420b4:	e0bf6517 	ldw	r2,-620(fp)
 30420b8:	10801010 	cmplti	r2,r2,64
 30420bc:	103ff01e 	bne	r2,zero,3042080 <file_list+0x10e8>
              lyric[*l_num].l_name[j]=' ';
          lyric[*l_num].l_name[j]='\0';
 30420c0:	e0bffe17 	ldw	r2,-8(fp)
 30420c4:	10800017 	ldw	r2,0(r2)
 30420c8:	10800e24 	muli	r2,r2,56
 30420cc:	1007883a 	mov	r3,r2
 30420d0:	e0bffc17 	ldw	r2,-16(fp)
 30420d4:	1887883a 	add	r3,r3,r2
 30420d8:	e0bf6517 	ldw	r2,-620(fp)
 30420dc:	1885883a 	add	r2,r3,r2
 30420e0:	10000005 	stb	zero,0(r2)
          lyric[*l_num].cluster=(Buffer[num_dw*DW+0x1b]<<8)|Buffer[num_dw*DW+0x1a];
 30420e4:	e0bffe17 	ldw	r2,-8(fp)
 30420e8:	10800017 	ldw	r2,0(r2)
 30420ec:	10800e24 	muli	r2,r2,56
 30420f0:	1007883a 	mov	r3,r2
 30420f4:	e0bffc17 	ldw	r2,-16(fp)
 30420f8:	188b883a 	add	r5,r3,r2
 30420fc:	e0bf6217 	ldw	r2,-632(fp)
 3042100:	1004917a 	slli	r2,r2,5
 3042104:	10c006c4 	addi	r3,r2,27
 3042108:	e0bf7b04 	addi	r2,fp,-532
 304210c:	10c5883a 	add	r2,r2,r3
 3042110:	10800003 	ldbu	r2,0(r2)
 3042114:	10803fcc 	andi	r2,r2,255
 3042118:	1008923a 	slli	r4,r2,8
 304211c:	e0bf6217 	ldw	r2,-632(fp)
 3042120:	1004917a 	slli	r2,r2,5
 3042124:	10c00684 	addi	r3,r2,26
 3042128:	e0bf7b04 	addi	r2,fp,-532
 304212c:	10c5883a 	add	r2,r2,r3
 3042130:	10800003 	ldbu	r2,0(r2)
 3042134:	10803fcc 	andi	r2,r2,255
 3042138:	2084b03a 	or	r2,r4,r2
 304213c:	28800d15 	stw	r2,52(r5)
          (*l_num)++;
 3042140:	e0bffe17 	ldw	r2,-8(fp)
 3042144:	10800017 	ldw	r2,0(r2)
 3042148:	10c00044 	addi	r3,r2,1
 304214c:	e0bffe17 	ldw	r2,-8(fp)
 3042150:	10c00015 	stw	r3,0(r2)
        }
        k=0;
 3042154:	e03f6415 	stw	zero,-624(fp)
        find_2e=0;
 3042158:	e03f6115 	stw	zero,-636(fp)
        flag_done=0;
 304215c:	e03f6015 	stw	zero,-640(fp)
        flag_01=0;
 3042160:	e03f6315 	stw	zero,-628(fp)
        j=0;       
 3042164:	e03f6515 	stw	zero,-620(fp)
      }         
    }
    num_dw++;
 3042168:	e0bf6217 	ldw	r2,-632(fp)
 304216c:	10800044 	addi	r2,r2,1
 3042170:	e0bf6215 	stw	r2,-632(fp)
    if (num_dw==16)
 3042174:	e0bf6217 	ldw	r2,-632(fp)
 3042178:	10800418 	cmpnei	r2,r2,16
 304217c:	10000a1e 	bne	r2,zero,30421a8 <file_list+0x1210>
    {
      s_num++;
 3042180:	e0bf5c17 	ldw	r2,-656(fp)
 3042184:	10800044 	addi	r2,r2,1
 3042188:	e0bf5c15 	stw	r2,-656(fp)
      SD_read_lba(Buffer,sector+s_num,1);
 304218c:	e0ff6717 	ldw	r3,-612(fp)
 3042190:	e0bf5c17 	ldw	r2,-656(fp)
 3042194:	188b883a 	add	r5,r3,r2
 3042198:	e13f7b04 	addi	r4,fp,-532
 304219c:	01800044 	movi	r6,1
 30421a0:	30439440 	call	3043944 <SD_read_lba>
      num_dw=0;  
 30421a4:	e03f6215 	stw	zero,-632(fp)
    sector++;

  } 
 }
 LCD_Show_Text("bg");
  while(Buffer[num_dw*DW]!=0x00)
 30421a8:	e0bf6217 	ldw	r2,-632(fp)
 30421ac:	1006917a 	slli	r3,r2,5
 30421b0:	e0bf7b04 	addi	r2,fp,-532
 30421b4:	10c5883a 	add	r2,r2,r3
 30421b8:	10800003 	ldbu	r2,0(r2)
 30421bc:	10803fcc 	andi	r2,r2,255
 30421c0:	1004c03a 	cmpne	r2,r2,zero
 30421c4:	103c041e 	bne	r2,zero,30411d8 <file_list+0x240>
      s_num++;
      SD_read_lba(Buffer,sector+s_num,1);
      num_dw=0;  
    } 
  }
}
 30421c8:	e037883a 	mov	sp,fp
 30421cc:	dfc00117 	ldw	ra,4(sp)
 30421d0:	df000017 	ldw	fp,0(sp)
 30421d4:	dec00204 	addi	sp,sp,8
 30421d8:	f800283a 	ret

030421dc <find_cluster>:
#include "head.h"


void find_cluster(int m_num,int fat1_addr,unsigned int *cluster)
{
 30421dc:	deff7604 	addi	sp,sp,-552
 30421e0:	dfc08915 	stw	ra,548(sp)
 30421e4:	df008815 	stw	fp,544(sp)
 30421e8:	df008804 	addi	fp,sp,544
 30421ec:	e13ffd15 	stw	r4,-12(fp)
 30421f0:	e17ffe15 	stw	r5,-8(fp)
 30421f4:	e1bfff15 	stw	r6,-4(fp)
  UINT16 f_clu;
  int fat_off,fat_num,sect_num;
  int i=1 ;
 30421f8:	00800044 	movi	r2,1
 30421fc:	e0bf7815 	stw	r2,-544(fp)
  BYTE Buffer[512];
  f_clu=cluster[0];
 3042200:	e0bfff17 	ldw	r2,-4(fp)
 3042204:	10800017 	ldw	r2,0(r2)
 3042208:	e0bf7c15 	stw	r2,-528(fp)

  if(f_clu!=0xffff && f_clu!=0)
 304220c:	e0ff7c17 	ldw	r3,-528(fp)
 3042210:	00bfffd4 	movui	r2,65535
 3042214:	18801226 	beq	r3,r2,3042260 <find_cluster+0x84>
 3042218:	e0bf7c17 	ldw	r2,-528(fp)
 304221c:	1005003a 	cmpeq	r2,r2,zero
 3042220:	10000f1e 	bne	r2,zero,3042260 <find_cluster+0x84>
  {
    fat_off=f_clu%0x0100;
 3042224:	e0bf7c17 	ldw	r2,-528(fp)
 3042228:	10803fcc 	andi	r2,r2,255
 304222c:	e0bf7b15 	stw	r2,-532(fp)
    fat_num=f_clu/0x0100;
 3042230:	e0bf7c17 	ldw	r2,-528(fp)
 3042234:	1004d23a 	srli	r2,r2,8
 3042238:	e0bf7a15 	stw	r2,-536(fp)
    sect_num=fat1_addr+fat_num;
 304223c:	e0fffe17 	ldw	r3,-8(fp)
 3042240:	e0bf7a17 	ldw	r2,-536(fp)
 3042244:	1885883a 	add	r2,r3,r2
 3042248:	e0bf7915 	stw	r2,-540(fp)
    SD_read_lba(Buffer,sect_num,1);
 304224c:	e17f7917 	ldw	r5,-540(fp)
 3042250:	e13f7d04 	addi	r4,fp,-524
 3042254:	01800044 	movi	r6,1
 3042258:	30439440 	call	3043944 <SD_read_lba>
  int fat_off,fat_num,sect_num;
  int i=1 ;
  BYTE Buffer[512];
  f_clu=cluster[0];

  if(f_clu!=0xffff && f_clu!=0)
 304225c:	00004606 	br	3042378 <find_cluster+0x19c>
    fat_off=f_clu%0x0100;
    fat_num=f_clu/0x0100;
    sect_num=fat1_addr+fat_num;
    SD_read_lba(Buffer,sect_num,1);
  }
  else if(f_clu==0xffff)
 3042260:	e0ff7c17 	ldw	r3,-528(fp)
 3042264:	00bfffd4 	movui	r2,65535
 3042268:	1880051e 	bne	r3,r2,3042280 <find_cluster+0xa4>
  {
    cluster[1]=1;
 304226c:	e0bfff17 	ldw	r2,-4(fp)
 3042270:	10c00104 	addi	r3,r2,4
 3042274:	00800044 	movi	r2,1
 3042278:	18800015 	stw	r2,0(r3)
    return;
 304227c:	00005806 	br	30423e0 <find_cluster+0x204>
  }
  else if(f_clu==0)
 3042280:	e0bf7c17 	ldw	r2,-528(fp)
 3042284:	1004c03a 	cmpne	r2,r2,zero
 3042288:	10003b1e 	bne	r2,zero,3042378 <find_cluster+0x19c>
  {
    cluster[0]=1;
 304228c:	e0ffff17 	ldw	r3,-4(fp)
 3042290:	00800044 	movi	r2,1
 3042294:	18800015 	stw	r2,0(r3)
    return;
 3042298:	00005106 	br	30423e0 <find_cluster+0x204>
  }
  
  while((Buffer[fat_off*2+1]<<8|Buffer[fat_off*2])!=0xffff)
  {
    cluster[i]=Buffer[fat_off*2+1]<<8|Buffer[fat_off*2];
 304229c:	e0bf7817 	ldw	r2,-544(fp)
 30422a0:	1085883a 	add	r2,r2,r2
 30422a4:	1085883a 	add	r2,r2,r2
 30422a8:	1007883a 	mov	r3,r2
 30422ac:	e0bfff17 	ldw	r2,-4(fp)
 30422b0:	188b883a 	add	r5,r3,r2
 30422b4:	e0bf7b17 	ldw	r2,-532(fp)
 30422b8:	1085883a 	add	r2,r2,r2
 30422bc:	10c00044 	addi	r3,r2,1
 30422c0:	e0bf7d04 	addi	r2,fp,-524
 30422c4:	10c5883a 	add	r2,r2,r3
 30422c8:	10800003 	ldbu	r2,0(r2)
 30422cc:	10803fcc 	andi	r2,r2,255
 30422d0:	1008923a 	slli	r4,r2,8
 30422d4:	e0bf7b17 	ldw	r2,-532(fp)
 30422d8:	1085883a 	add	r2,r2,r2
 30422dc:	1007883a 	mov	r3,r2
 30422e0:	e0bf7d04 	addi	r2,fp,-524
 30422e4:	10c5883a 	add	r2,r2,r3
 30422e8:	10800003 	ldbu	r2,0(r2)
 30422ec:	10803fcc 	andi	r2,r2,255
 30422f0:	2084b03a 	or	r2,r4,r2
 30422f4:	28800015 	stw	r2,0(r5)
    fat_off=cluster[i]%0x0100;
 30422f8:	e0bf7817 	ldw	r2,-544(fp)
 30422fc:	1085883a 	add	r2,r2,r2
 3042300:	1085883a 	add	r2,r2,r2
 3042304:	1007883a 	mov	r3,r2
 3042308:	e0bfff17 	ldw	r2,-4(fp)
 304230c:	1885883a 	add	r2,r3,r2
 3042310:	10800017 	ldw	r2,0(r2)
 3042314:	10803fcc 	andi	r2,r2,255
 3042318:	e0bf7b15 	stw	r2,-532(fp)
    fat_num=cluster[i]/0x0100;
 304231c:	e0bf7817 	ldw	r2,-544(fp)
 3042320:	1085883a 	add	r2,r2,r2
 3042324:	1085883a 	add	r2,r2,r2
 3042328:	1007883a 	mov	r3,r2
 304232c:	e0bfff17 	ldw	r2,-4(fp)
 3042330:	1885883a 	add	r2,r3,r2
 3042334:	10800017 	ldw	r2,0(r2)
 3042338:	1004d23a 	srli	r2,r2,8
 304233c:	e0bf7a15 	stw	r2,-536(fp)
    if(fat_num!=0)
 3042340:	e0bf7a17 	ldw	r2,-536(fp)
 3042344:	1005003a 	cmpeq	r2,r2,zero
 3042348:	1000081e 	bne	r2,zero,304236c <find_cluster+0x190>
    {
      sect_num=fat1_addr+fat_num;
 304234c:	e0fffe17 	ldw	r3,-8(fp)
 3042350:	e0bf7a17 	ldw	r2,-536(fp)
 3042354:	1885883a 	add	r2,r3,r2
 3042358:	e0bf7915 	stw	r2,-540(fp)
      SD_read_lba(Buffer,sect_num,1);
 304235c:	e17f7917 	ldw	r5,-540(fp)
 3042360:	e13f7d04 	addi	r4,fp,-524
 3042364:	01800044 	movi	r6,1
 3042368:	30439440 	call	3043944 <SD_read_lba>
    }
    i++;
 304236c:	e0bf7817 	ldw	r2,-544(fp)
 3042370:	10800044 	addi	r2,r2,1
 3042374:	e0bf7815 	stw	r2,-544(fp)
  {
    cluster[0]=1;
    return;
  }
  
  while((Buffer[fat_off*2+1]<<8|Buffer[fat_off*2])!=0xffff)
 3042378:	e0bf7b17 	ldw	r2,-532(fp)
 304237c:	1085883a 	add	r2,r2,r2
 3042380:	10c00044 	addi	r3,r2,1
 3042384:	e0bf7d04 	addi	r2,fp,-524
 3042388:	10c5883a 	add	r2,r2,r3
 304238c:	10800003 	ldbu	r2,0(r2)
 3042390:	10803fcc 	andi	r2,r2,255
 3042394:	1008923a 	slli	r4,r2,8
 3042398:	e0bf7b17 	ldw	r2,-532(fp)
 304239c:	1085883a 	add	r2,r2,r2
 30423a0:	1007883a 	mov	r3,r2
 30423a4:	e0bf7d04 	addi	r2,fp,-524
 30423a8:	10c5883a 	add	r2,r2,r3
 30423ac:	10800003 	ldbu	r2,0(r2)
 30423b0:	10803fcc 	andi	r2,r2,255
 30423b4:	2086b03a 	or	r3,r4,r2
 30423b8:	00bfffd4 	movui	r2,65535
 30423bc:	18bfb71e 	bne	r3,r2,304229c <find_cluster+0xc0>
      sect_num=fat1_addr+fat_num;
      SD_read_lba(Buffer,sect_num,1);
    }
    i++;
  }
  cluster[i]=1;
 30423c0:	e0bf7817 	ldw	r2,-544(fp)
 30423c4:	1085883a 	add	r2,r2,r2
 30423c8:	1085883a 	add	r2,r2,r2
 30423cc:	1007883a 	mov	r3,r2
 30423d0:	e0bfff17 	ldw	r2,-4(fp)
 30423d4:	1887883a 	add	r3,r3,r2
 30423d8:	00800044 	movi	r2,1
 30423dc:	18800015 	stw	r2,0(r3)
}
 30423e0:	e037883a 	mov	sp,fp
 30423e4:	dfc00117 	ldw	ra,4(sp)
 30423e8:	df000017 	ldw	fp,0(sp)
 30423ec:	dec00204 	addi	sp,sp,8
 30423f0:	f800283a 	ret

030423f4 <read_lyrics>:
#include "head.h"

int read_lyrics(char *m_name,struct lyric0 *lyric,struct lyrics0 *lyrics,int num , int *clupsec_num, int *data_sector)

{
 30423f4:	def4f004 	addi	sp,sp,-11328
 30423f8:	dfcb0f15 	stw	ra,11324(sp)
 30423fc:	df0b0e15 	stw	fp,11320(sp)
 3042400:	dc0b0d15 	stw	r16,11316(sp)
 3042404:	df0b0d04 	addi	fp,sp,11316
 3042408:	e13ffa15 	stw	r4,-24(fp)
 304240c:	e17ffb15 	stw	r5,-20(fp)
 3042410:	e1bffc15 	stw	r6,-16(fp)
 3042414:	e1fffd15 	stw	r7,-12(fp)
  UINT16 i,numb1=0,timetemp[6],base,a,b,c,d,j,e,temp_time[100],temp0;
 3042418:	e034fc15 	stw	zero,-11280(fp)
  UINT32 numb0=0;
 304241c:	e034f315 	stw	zero,-11316(fp)
  BYTE buffer[1024]={0};
 3042420:	e1356804 	addi	r4,fp,-10848
 3042424:	01810004 	movi	r6,1024
 3042428:	000b883a 	mov	r5,zero
 304242c:	3044a100 	call	3044a10 <memset>
  char temp[100][97],tempp[97];
  
  strlwr(m_name); // lower case the song name
 3042430:	e13ffa17 	ldw	r4,-24(fp)
 3042434:	3044bd80 	call	3044bd8 <strlwr>
  for(i=0;i<num;i++) //loop to search
 3042438:	e034fd15 	stw	zero,-11276(fp)
 304243c:	00001406 	br	3042490 <read_lyrics+0x9c>
  {
     strlwr(lyric[i].l_name);  //low case the lyric file name
 3042440:	e0b4fd17 	ldw	r2,-11276(fp)
 3042444:	10800e24 	muli	r2,r2,56
 3042448:	1007883a 	mov	r3,r2
 304244c:	e0bffb17 	ldw	r2,-20(fp)
 3042450:	1885883a 	add	r2,r3,r2
 3042454:	1009883a 	mov	r4,r2
 3042458:	3044bd80 	call	3044bd8 <strlwr>
     if(!strcmp(m_name,lyric[i].l_name))  //break if matching lyric is found
 304245c:	e0b4fd17 	ldw	r2,-11276(fp)
 3042460:	10800e24 	muli	r2,r2,56
 3042464:	1007883a 	mov	r3,r2
 3042468:	e0bffb17 	ldw	r2,-20(fp)
 304246c:	1885883a 	add	r2,r3,r2
 3042470:	100b883a 	mov	r5,r2
 3042474:	e13ffa17 	ldw	r4,-24(fp)
 3042478:	3044aa80 	call	3044aa8 <strcmp>
 304247c:	1005003a 	cmpeq	r2,r2,zero
 3042480:	1000061e 	bne	r2,zero,304249c <read_lyrics+0xa8>
  UINT32 numb0=0;
  BYTE buffer[1024]={0};
  char temp[100][97],tempp[97];
  
  strlwr(m_name); // lower case the song name
  for(i=0;i<num;i++) //loop to search
 3042484:	e0b4fd17 	ldw	r2,-11276(fp)
 3042488:	10800044 	addi	r2,r2,1
 304248c:	e0b4fd15 	stw	r2,-11276(fp)
 3042490:	e0fffd17 	ldw	r3,-12(fp)
 3042494:	e0b4fd17 	ldw	r2,-11276(fp)
 3042498:	10ffe936 	bltu	r2,r3,3042440 <read_lyrics+0x4c>
     if(!strcmp(m_name,lyric[i].l_name))  //break if matching lyric is found
     {
        break;
     }
  } 
  if(i==num)//cannot find lyric file for this song, return
 304249c:	e0fffd17 	ldw	r3,-12(fp)
 30424a0:	e0b4fd17 	ldw	r2,-11276(fp)
 30424a4:	1880031e 	bne	r3,r2,30424b4 <read_lyrics+0xc0>
     return numb0; 
 30424a8:	e0b4f317 	ldw	r2,-11316(fp)
 30424ac:	e0bfff15 	stw	r2,-4(fp)
 30424b0:	0003c506 	br	30433c8 <read_lyrics+0xfd4>
  else
  {
    base=(lyric[i].cluster-2)**clupsec_num+*data_sector;  //base address
 30424b4:	e0b4fd17 	ldw	r2,-11276(fp)
 30424b8:	10800e24 	muli	r2,r2,56
 30424bc:	1007883a 	mov	r3,r2
 30424c0:	e0bffb17 	ldw	r2,-20(fp)
 30424c4:	1885883a 	add	r2,r3,r2
 30424c8:	10800d17 	ldw	r2,52(r2)
 30424cc:	10ffff84 	addi	r3,r2,-2
 30424d0:	e0800317 	ldw	r2,12(fp)
 30424d4:	10800017 	ldw	r2,0(r2)
 30424d8:	1887383a 	mul	r3,r3,r2
 30424dc:	e0800417 	ldw	r2,16(fp)
 30424e0:	10800017 	ldw	r2,0(r2)
 30424e4:	1885883a 	add	r2,r3,r2
 30424e8:	e0b4fb15 	stw	r2,-11284(fp)
   
    j=base;   
 30424ec:	e0b4fb17 	ldw	r2,-11284(fp)
 30424f0:	e0b4f615 	stw	r2,-11304(fp)
    SD_read_lba(buffer,j,1);//read
 30424f4:	e1356804 	addi	r4,fp,-10848
 30424f8:	e174f617 	ldw	r5,-11304(fp)
 30424fc:	01800044 	movi	r6,1
 3042500:	30439440 	call	3043944 <SD_read_lba>
    SD_read_lba(buffer+512,j+1,1); //read
 3042504:	e0b56804 	addi	r2,fp,-10848
 3042508:	11008004 	addi	r4,r2,512
 304250c:	e0b4f617 	ldw	r2,-11304(fp)
 3042510:	11400044 	addi	r5,r2,1
 3042514:	01800044 	movi	r6,1
 3042518:	30439440 	call	3043944 <SD_read_lba>
    a=0;
 304251c:	e034fa15 	stw	zero,-11288(fp)
    
    while(j<base+*clupsec_num)    //read lyrics
 3042520:	00024306 	br	3042e30 <read_lyrics+0xa3c>
    {
      if(buffer[a]==0x00)       //'\0' is the ending char
 3042524:	e0f4fa17 	ldw	r3,-11288(fp)
 3042528:	e0b56804 	addi	r2,fp,-10848
 304252c:	10c5883a 	add	r2,r2,r3
 3042530:	10800003 	ldbu	r2,0(r2)
 3042534:	10803fcc 	andi	r2,r2,255
 3042538:	1005003a 	cmpeq	r2,r2,zero
 304253c:	1002431e 	bne	r2,zero,3042e4c <read_lyrics+0xa58>
        break;      
      else                      //if no repeat lines in lyric
      {
        if(buffer[a]=='['&&buffer[a+1]<='9'&&buffer[a+1]>='0'&&buffer[a+10]!='[')
 3042540:	e0f4fa17 	ldw	r3,-11288(fp)
 3042544:	e0b56804 	addi	r2,fp,-10848
 3042548:	10c5883a 	add	r2,r2,r3
 304254c:	10800003 	ldbu	r2,0(r2)
 3042550:	10803fcc 	andi	r2,r2,255
 3042554:	108016d8 	cmpnei	r2,r2,91
 3042558:	1001031e 	bne	r2,zero,3042968 <read_lyrics+0x574>
 304255c:	e0b4fa17 	ldw	r2,-11288(fp)
 3042560:	10c00044 	addi	r3,r2,1
 3042564:	e0b56804 	addi	r2,fp,-10848
 3042568:	10c5883a 	add	r2,r2,r3
 304256c:	10800003 	ldbu	r2,0(r2)
 3042570:	10803fcc 	andi	r2,r2,255
 3042574:	10800ea8 	cmpgeui	r2,r2,58
 3042578:	1000fb1e 	bne	r2,zero,3042968 <read_lyrics+0x574>
 304257c:	e0b4fa17 	ldw	r2,-11288(fp)
 3042580:	10c00044 	addi	r3,r2,1
 3042584:	e0b56804 	addi	r2,fp,-10848
 3042588:	10c5883a 	add	r2,r2,r3
 304258c:	10800003 	ldbu	r2,0(r2)
 3042590:	10803fcc 	andi	r2,r2,255
 3042594:	10800c30 	cmpltui	r2,r2,48
 3042598:	1000f31e 	bne	r2,zero,3042968 <read_lyrics+0x574>
 304259c:	e0b4fa17 	ldw	r2,-11288(fp)
 30425a0:	10c00284 	addi	r3,r2,10
 30425a4:	e0b56804 	addi	r2,fp,-10848
 30425a8:	10c5883a 	add	r2,r2,r3
 30425ac:	10800003 	ldbu	r2,0(r2)
 30425b0:	10803fcc 	andi	r2,r2,255
 30425b4:	108016e0 	cmpeqi	r2,r2,91
 30425b8:	1000eb1e 	bne	r2,zero,3042968 <read_lyrics+0x574>
        {
          a++;
 30425bc:	e0b4fa17 	ldw	r2,-11288(fp)
 30425c0:	10800044 	addi	r2,r2,1
 30425c4:	e0b4fa15 	stw	r2,-11288(fp)
          if(a>=512)  //read next cluster when finish the current one
 30425c8:	e0b4fa17 	ldw	r2,-11288(fp)
 30425cc:	10808030 	cmpltui	r2,r2,512
 30425d0:	10000e1e 	bne	r2,zero,304260c <read_lyrics+0x218>
          {
                j++;
 30425d4:	e0b4f617 	ldw	r2,-11304(fp)
 30425d8:	10800044 	addi	r2,r2,1
 30425dc:	e0b4f615 	stw	r2,-11304(fp)
                SD_read_lba(buffer,j,1); 
 30425e0:	e1356804 	addi	r4,fp,-10848
 30425e4:	e174f617 	ldw	r5,-11304(fp)
 30425e8:	01800044 	movi	r6,1
 30425ec:	30439440 	call	3043944 <SD_read_lba>
                SD_read_lba(buffer+512,j+1,1); 
 30425f0:	e0b56804 	addi	r2,fp,-10848
 30425f4:	11008004 	addi	r4,r2,512
 30425f8:	e0b4f617 	ldw	r2,-11304(fp)
 30425fc:	11400044 	addi	r5,r2,1
 3042600:	01800044 	movi	r6,1
 3042604:	30439440 	call	3043944 <SD_read_lba>
                a=0;
 3042608:	e034fa15 	stw	zero,-11288(fp)
          }
          c=0;
 304260c:	e034f815 	stw	zero,-11296(fp)
          while(buffer[a]!=']')     
 3042610:	00003106 	br	30426d8 <read_lyrics+0x2e4>
          {
            if(buffer[a]<='9'&&buffer[a]>='0')
 3042614:	e0f4fa17 	ldw	r3,-11288(fp)
 3042618:	e0b56804 	addi	r2,fp,-10848
 304261c:	10c5883a 	add	r2,r2,r3
 3042620:	10800003 	ldbu	r2,0(r2)
 3042624:	10803fcc 	andi	r2,r2,255
 3042628:	10800ea8 	cmpgeui	r2,r2,58
 304262c:	1000161e 	bne	r2,zero,3042688 <read_lyrics+0x294>
 3042630:	e0f4fa17 	ldw	r3,-11288(fp)
 3042634:	e0b56804 	addi	r2,fp,-10848
 3042638:	10c5883a 	add	r2,r2,r3
 304263c:	10800003 	ldbu	r2,0(r2)
 3042640:	10803fcc 	andi	r2,r2,255
 3042644:	10800c30 	cmpltui	r2,r2,48
 3042648:	10000f1e 	bne	r2,zero,3042688 <read_lyrics+0x294>
            {
              timetemp[c]=buffer[a];
 304264c:	e134f817 	ldw	r4,-11296(fp)
 3042650:	e0f4fa17 	ldw	r3,-11288(fp)
 3042654:	e0b56804 	addi	r2,fp,-10848
 3042658:	10c5883a 	add	r2,r2,r3
 304265c:	10800003 	ldbu	r2,0(r2)
 3042660:	10c03fcc 	andi	r3,r2,255
 3042664:	2105883a 	add	r2,r4,r4
 3042668:	1085883a 	add	r2,r2,r2
 304266c:	e134f304 	addi	r4,fp,-11316
 3042670:	1105883a 	add	r2,r2,r4
 3042674:	10800b04 	addi	r2,r2,44
 3042678:	10c00015 	stw	r3,0(r2)
              c++;
 304267c:	e0b4f817 	ldw	r2,-11296(fp)
 3042680:	10800044 	addi	r2,r2,1
 3042684:	e0b4f815 	stw	r2,-11296(fp)
            }
            a++;             
 3042688:	e0b4fa17 	ldw	r2,-11288(fp)
 304268c:	10800044 	addi	r2,r2,1
 3042690:	e0b4fa15 	stw	r2,-11288(fp)
            if(a>=512)              //read next cluster when finish the current one
 3042694:	e0b4fa17 	ldw	r2,-11288(fp)
 3042698:	10808030 	cmpltui	r2,r2,512
 304269c:	10000e1e 	bne	r2,zero,30426d8 <read_lyrics+0x2e4>
            {
                j++;
 30426a0:	e0b4f617 	ldw	r2,-11304(fp)
 30426a4:	10800044 	addi	r2,r2,1
 30426a8:	e0b4f615 	stw	r2,-11304(fp)
                SD_read_lba(buffer,j,1); 
 30426ac:	e1356804 	addi	r4,fp,-10848
 30426b0:	e174f617 	ldw	r5,-11304(fp)
 30426b4:	01800044 	movi	r6,1
 30426b8:	30439440 	call	3043944 <SD_read_lba>
                SD_read_lba(buffer+512,j+1,1); 
 30426bc:	e0b56804 	addi	r2,fp,-10848
 30426c0:	11008004 	addi	r4,r2,512
 30426c4:	e0b4f617 	ldw	r2,-11304(fp)
 30426c8:	11400044 	addi	r5,r2,1
 30426cc:	01800044 	movi	r6,1
 30426d0:	30439440 	call	3043944 <SD_read_lba>
                a=0;
 30426d4:	e034fa15 	stw	zero,-11288(fp)
                SD_read_lba(buffer,j,1); 
                SD_read_lba(buffer+512,j+1,1); 
                a=0;
          }
          c=0;
          while(buffer[a]!=']')     
 30426d8:	e0f4fa17 	ldw	r3,-11288(fp)
 30426dc:	e0b56804 	addi	r2,fp,-10848
 30426e0:	10c5883a 	add	r2,r2,r3
 30426e4:	10800003 	ldbu	r2,0(r2)
 30426e8:	10803fcc 	andi	r2,r2,255
 30426ec:	10801758 	cmpnei	r2,r2,93
 30426f0:	103fc81e 	bne	r2,zero,3042614 <read_lyrics+0x220>
                SD_read_lba(buffer,j,1); 
                SD_read_lba(buffer+512,j+1,1); 
                a=0;
            }                         
          }
          a++;
 30426f4:	e0b4fa17 	ldw	r2,-11288(fp)
 30426f8:	10800044 	addi	r2,r2,1
 30426fc:	e0b4fa15 	stw	r2,-11288(fp)
          if(a>=512)                //read next cluster when finish the current one
 3042700:	e0b4fa17 	ldw	r2,-11288(fp)
 3042704:	10808030 	cmpltui	r2,r2,512
 3042708:	10000e1e 	bne	r2,zero,3042744 <read_lyrics+0x350>
          {
                j++;
 304270c:	e0b4f617 	ldw	r2,-11304(fp)
 3042710:	10800044 	addi	r2,r2,1
 3042714:	e0b4f615 	stw	r2,-11304(fp)
                SD_read_lba(buffer,j,1);
 3042718:	e1356804 	addi	r4,fp,-10848
 304271c:	e174f617 	ldw	r5,-11304(fp)
 3042720:	01800044 	movi	r6,1
 3042724:	30439440 	call	3043944 <SD_read_lba>
                SD_read_lba(buffer+512,j+1,1); 
 3042728:	e0b56804 	addi	r2,fp,-10848
 304272c:	11008004 	addi	r4,r2,512
 3042730:	e0b4f617 	ldw	r2,-11304(fp)
 3042734:	11400044 	addi	r5,r2,1
 3042738:	01800044 	movi	r6,1
 304273c:	30439440 	call	3043944 <SD_read_lba>
                a=0;
 3042740:	e034fa15 	stw	zero,-11288(fp)
          }
          temp_time[numb0]=(((timetemp[0]-0x30)*10+
 3042744:	e434f317 	ldw	r16,-11316(fp)
 3042748:	e0b4fe17 	ldw	r2,-11272(fp)
 304274c:	10c002a4 	muli	r3,r2,10
 3042750:	e0b4ff17 	ldw	r2,-11268(fp)
 3042754:	1885883a 	add	r2,r3,r2
 3042758:	10c5dc24 	muli	r3,r2,6000
 304275c:	e0b50017 	ldw	r2,-11264(fp)
 3042760:	1080fa24 	muli	r2,r2,1000
 3042764:	1887883a 	add	r3,r3,r2
 3042768:	e0b50117 	ldw	r2,-11260(fp)
 304276c:	10801924 	muli	r2,r2,100
 3042770:	1887883a 	add	r3,r3,r2
 3042774:	e0b50317 	ldw	r2,-11252(fp)
 3042778:	108002a4 	muli	r2,r2,10
 304277c:	1887883a 	add	r3,r3,r2
 3042780:	e0b50317 	ldw	r2,-11252(fp)
 3042784:	1885883a 	add	r2,r3,r2
 3042788:	10c05de4 	muli	r3,r2,375
 304278c:	00adfff4 	movhi	r2,47103
 3042790:	109a7404 	addi	r2,r2,27088
 3042794:	1889883a 	add	r4,r3,r2
 3042798:	01401904 	movi	r5,100
 304279c:	30449600 	call	3044960 <__udivsi3>
 30427a0:	1007883a 	mov	r3,r2
 30427a4:	8405883a 	add	r2,r16,r16
 30427a8:	1085883a 	add	r2,r2,r2
 30427ac:	e174f304 	addi	r5,fp,-11316
 30427b0:	1145883a 	add	r2,r2,r5
 30427b4:	10801104 	addi	r2,r2,68
 30427b8:	10c00015 	stw	r3,0(r2)
                              (timetemp[2]-0x30)*1000+
                              (timetemp[3]-0x30)*100+
                              (timetemp[5]-0x30)*10+
                              (timetemp[5]-0x30))*375/100;
                
          for(c=0;c<96;)            //read long lyric
 30427bc:	e034f815 	stw	zero,-11296(fp)
 30427c0:	00004806 	br	30428e4 <read_lyrics+0x4f0>
          {
            if(buffer[a]!=0x0d&&buffer[a+1]!=0x0a)
 30427c4:	e0f4fa17 	ldw	r3,-11288(fp)
 30427c8:	e0b56804 	addi	r2,fp,-10848
 30427cc:	10c5883a 	add	r2,r2,r3
 30427d0:	10800003 	ldbu	r2,0(r2)
 30427d4:	10803fcc 	andi	r2,r2,255
 30427d8:	10800360 	cmpeqi	r2,r2,13
 30427dc:	1000441e 	bne	r2,zero,30428f0 <read_lyrics+0x4fc>
 30427e0:	e0b4fa17 	ldw	r2,-11288(fp)
 30427e4:	10c00044 	addi	r3,r2,1
 30427e8:	e0b56804 	addi	r2,fp,-10848
 30427ec:	10c5883a 	add	r2,r2,r3
 30427f0:	10800003 	ldbu	r2,0(r2)
 30427f4:	10803fcc 	andi	r2,r2,255
 30427f8:	108002a0 	cmpeqi	r2,r2,10
 30427fc:	10003c1e 	bne	r2,zero,30428f0 <read_lyrics+0x4fc>
            {
              if((buffer[a]>=0x21&&buffer[a]<=0x7e)||buffer[a]==' ')
 3042800:	e0f4fa17 	ldw	r3,-11288(fp)
 3042804:	e0b56804 	addi	r2,fp,-10848
 3042808:	10c5883a 	add	r2,r2,r3
 304280c:	10800003 	ldbu	r2,0(r2)
 3042810:	10803fcc 	andi	r2,r2,255
 3042814:	10800870 	cmpltui	r2,r2,33
 3042818:	1000071e 	bne	r2,zero,3042838 <read_lyrics+0x444>
 304281c:	e0f4fa17 	ldw	r3,-11288(fp)
 3042820:	e0b56804 	addi	r2,fp,-10848
 3042824:	10c5883a 	add	r2,r2,r3
 3042828:	10800003 	ldbu	r2,0(r2)
 304282c:	10803fcc 	andi	r2,r2,255
 3042830:	10801ff0 	cmpltui	r2,r2,127
 3042834:	1000071e 	bne	r2,zero,3042854 <read_lyrics+0x460>
 3042838:	e0f4fa17 	ldw	r3,-11288(fp)
 304283c:	e0b56804 	addi	r2,fp,-10848
 3042840:	10c5883a 	add	r2,r2,r3
 3042844:	10800003 	ldbu	r2,0(r2)
 3042848:	10803fcc 	andi	r2,r2,255
 304284c:	10800818 	cmpnei	r2,r2,32
 3042850:	1000101e 	bne	r2,zero,3042894 <read_lyrics+0x4a0>
                temp[numb0][c++]=buffer[a];
 3042854:	e134f317 	ldw	r4,-11316(fp)
 3042858:	e174f817 	ldw	r5,-11296(fp)
 304285c:	e0f4fa17 	ldw	r3,-11288(fp)
 3042860:	e0b56804 	addi	r2,fp,-10848
 3042864:	10c5883a 	add	r2,r2,r3
 3042868:	10800003 	ldbu	r2,0(r2)
 304286c:	1007883a 	mov	r3,r2
 3042870:	20801864 	muli	r2,r4,97
 3042874:	e1b4f304 	addi	r6,fp,-11316
 3042878:	1185883a 	add	r2,r2,r6
 304287c:	1145883a 	add	r2,r2,r5
 3042880:	10817504 	addi	r2,r2,1492
 3042884:	10c00005 	stb	r3,0(r2)
 3042888:	e0b4f817 	ldw	r2,-11296(fp)
 304288c:	10800044 	addi	r2,r2,1
 3042890:	e0b4f815 	stw	r2,-11296(fp)
              a++;            
 3042894:	e0b4fa17 	ldw	r2,-11288(fp)
 3042898:	10800044 	addi	r2,r2,1
 304289c:	e0b4fa15 	stw	r2,-11288(fp)
              if(a>=512)            //read next cluster when finish the current one
 30428a0:	e0b4fa17 	ldw	r2,-11288(fp)
 30428a4:	10808030 	cmpltui	r2,r2,512
 30428a8:	10000e1e 	bne	r2,zero,30428e4 <read_lyrics+0x4f0>
              {
               j++;
 30428ac:	e0b4f617 	ldw	r2,-11304(fp)
 30428b0:	10800044 	addi	r2,r2,1
 30428b4:	e0b4f615 	stw	r2,-11304(fp)
               SD_read_lba(buffer,j,1);
 30428b8:	e1356804 	addi	r4,fp,-10848
 30428bc:	e174f617 	ldw	r5,-11304(fp)
 30428c0:	01800044 	movi	r6,1
 30428c4:	30439440 	call	3043944 <SD_read_lba>
               SD_read_lba(buffer+512,j+1,1); 
 30428c8:	e0b56804 	addi	r2,fp,-10848
 30428cc:	11008004 	addi	r4,r2,512
 30428d0:	e0b4f617 	ldw	r2,-11304(fp)
 30428d4:	11400044 	addi	r5,r2,1
 30428d8:	01800044 	movi	r6,1
 30428dc:	30439440 	call	3043944 <SD_read_lba>
               a=0;
 30428e0:	e034fa15 	stw	zero,-11288(fp)
                              (timetemp[2]-0x30)*1000+
                              (timetemp[3]-0x30)*100+
                              (timetemp[5]-0x30)*10+
                              (timetemp[5]-0x30))*375/100;
                
          for(c=0;c<96;)            //read long lyric
 30428e4:	e0b4f817 	ldw	r2,-11296(fp)
 30428e8:	10801830 	cmpltui	r2,r2,96
 30428ec:	103fb51e 	bne	r2,zero,30427c4 <read_lyrics+0x3d0>
              } 
            } 
            else
              break;                       
          }
          temp[numb0][96]=c/32+1;  //how many 32 bits
 30428f0:	e134f317 	ldw	r4,-11316(fp)
 30428f4:	e0b4f817 	ldw	r2,-11296(fp)
 30428f8:	1004d17a 	srli	r2,r2,5
 30428fc:	10800044 	addi	r2,r2,1
 3042900:	1007883a 	mov	r3,r2
 3042904:	20801864 	muli	r2,r4,97
 3042908:	e134f304 	addi	r4,fp,-11316
 304290c:	1105883a 	add	r2,r2,r4
 3042910:	10818d04 	addi	r2,r2,1588
 3042914:	10c00005 	stb	r3,0(r2)
          for(;c<96;c++)
 3042918:	00000c06 	br	304294c <read_lyrics+0x558>
              temp[numb0][c]=0x20;  //fill in if not a integer multiper of 32
 304291c:	e0b4f317 	ldw	r2,-11316(fp)
 3042920:	e0f4f817 	ldw	r3,-11296(fp)
 3042924:	10801864 	muli	r2,r2,97
 3042928:	e174f304 	addi	r5,fp,-11316
 304292c:	1145883a 	add	r2,r2,r5
 3042930:	10c5883a 	add	r2,r2,r3
 3042934:	10c17504 	addi	r3,r2,1492
 3042938:	00800804 	movi	r2,32
 304293c:	18800005 	stb	r2,0(r3)
            } 
            else
              break;                       
          }
          temp[numb0][96]=c/32+1;  //how many 32 bits
          for(;c<96;c++)
 3042940:	e0b4f817 	ldw	r2,-11296(fp)
 3042944:	10800044 	addi	r2,r2,1
 3042948:	e0b4f815 	stw	r2,-11296(fp)
 304294c:	e0b4f817 	ldw	r2,-11296(fp)
 3042950:	10801830 	cmpltui	r2,r2,96
 3042954:	103ff11e 	bne	r2,zero,304291c <read_lyrics+0x528>
              temp[numb0][c]=0x20;  //fill in if not a integer multiper of 32
          numb0++;
 3042958:	e0b4f317 	ldw	r2,-11316(fp)
 304295c:	10800044 	addi	r2,r2,1
 3042960:	e0b4f315 	stw	r2,-11316(fp)
    {
      if(buffer[a]==0x00)       //'\0' is the ending char
        break;      
      else                      //if no repeat lines in lyric
      {
        if(buffer[a]=='['&&buffer[a+1]<='9'&&buffer[a+1]>='0'&&buffer[a+10]!='[')
 3042964:	00013206 	br	3042e30 <read_lyrics+0xa3c>
          temp[numb0][96]=c/32+1;  //how many 32 bits
          for(;c<96;c++)
              temp[numb0][c]=0x20;  //fill in if not a integer multiper of 32
          numb0++;
        }                           //finish reading this line
        else if(buffer[a]=='['&&buffer[a+1]<='9'&&buffer[a+1]>='0'&&buffer[a+10]=='[')  //if there's repeat lines
 3042968:	e0f4fa17 	ldw	r3,-11288(fp)
 304296c:	e0b56804 	addi	r2,fp,-10848
 3042970:	10c5883a 	add	r2,r2,r3
 3042974:	10800003 	ldbu	r2,0(r2)
 3042978:	10803fcc 	andi	r2,r2,255
 304297c:	108016d8 	cmpnei	r2,r2,91
 3042980:	1001171e 	bne	r2,zero,3042de0 <read_lyrics+0x9ec>
 3042984:	e0b4fa17 	ldw	r2,-11288(fp)
 3042988:	10c00044 	addi	r3,r2,1
 304298c:	e0b56804 	addi	r2,fp,-10848
 3042990:	10c5883a 	add	r2,r2,r3
 3042994:	10800003 	ldbu	r2,0(r2)
 3042998:	10803fcc 	andi	r2,r2,255
 304299c:	10800ea8 	cmpgeui	r2,r2,58
 30429a0:	10010f1e 	bne	r2,zero,3042de0 <read_lyrics+0x9ec>
 30429a4:	e0b4fa17 	ldw	r2,-11288(fp)
 30429a8:	10c00044 	addi	r3,r2,1
 30429ac:	e0b56804 	addi	r2,fp,-10848
 30429b0:	10c5883a 	add	r2,r2,r3
 30429b4:	10800003 	ldbu	r2,0(r2)
 30429b8:	10803fcc 	andi	r2,r2,255
 30429bc:	10800c30 	cmpltui	r2,r2,48
 30429c0:	1001071e 	bne	r2,zero,3042de0 <read_lyrics+0x9ec>
 30429c4:	e0b4fa17 	ldw	r2,-11288(fp)
 30429c8:	10c00284 	addi	r3,r2,10
 30429cc:	e0b56804 	addi	r2,fp,-10848
 30429d0:	10c5883a 	add	r2,r2,r3
 30429d4:	10800003 	ldbu	r2,0(r2)
 30429d8:	10803fcc 	andi	r2,r2,255
 30429dc:	108016d8 	cmpnei	r2,r2,91
 30429e0:	1000ff1e 	bne	r2,zero,3042de0 <read_lyrics+0x9ec>
        {
          for(b=1;buffer[a+b*10]=='[';b++);  //how many timinginformation for this repeading line
 30429e4:	00800044 	movi	r2,1
 30429e8:	e0b4f915 	stw	r2,-11292(fp)
 30429ec:	00000306 	br	30429fc <read_lyrics+0x608>
 30429f0:	e0b4f917 	ldw	r2,-11292(fp)
 30429f4:	10800044 	addi	r2,r2,1
 30429f8:	e0b4f915 	stw	r2,-11292(fp)
 30429fc:	e0b4f917 	ldw	r2,-11292(fp)
 3042a00:	10c002a4 	muli	r3,r2,10
 3042a04:	e0b4fa17 	ldw	r2,-11288(fp)
 3042a08:	1887883a 	add	r3,r3,r2
 3042a0c:	e0b56804 	addi	r2,fp,-10848
 3042a10:	10c5883a 	add	r2,r2,r3
 3042a14:	10800003 	ldbu	r2,0(r2)
 3042a18:	10803fcc 	andi	r2,r2,255
 3042a1c:	108016e0 	cmpeqi	r2,r2,91
 3042a20:	103ff31e 	bne	r2,zero,30429f0 <read_lyrics+0x5fc>
          for(c=0;c<b;c++)                  //read all information regarding to this line
 3042a24:	e034f815 	stw	zero,-11296(fp)
 3042a28:	00005e06 	br	3042ba4 <read_lyrics+0x7b0>
          {
             e=0;
 3042a2c:	e034f515 	stw	zero,-11308(fp)
             for(d=0;d<10;d++)
 3042a30:	e034f715 	stw	zero,-11300(fp)
 3042a34:	00003406 	br	3042b08 <read_lyrics+0x714>
             {
               if(buffer[a]<='9'&&buffer[a]>='0')  
 3042a38:	e0f4fa17 	ldw	r3,-11288(fp)
 3042a3c:	e0b56804 	addi	r2,fp,-10848
 3042a40:	10c5883a 	add	r2,r2,r3
 3042a44:	10800003 	ldbu	r2,0(r2)
 3042a48:	10803fcc 	andi	r2,r2,255
 3042a4c:	10800ea8 	cmpgeui	r2,r2,58
 3042a50:	1000161e 	bne	r2,zero,3042aac <read_lyrics+0x6b8>
 3042a54:	e0f4fa17 	ldw	r3,-11288(fp)
 3042a58:	e0b56804 	addi	r2,fp,-10848
 3042a5c:	10c5883a 	add	r2,r2,r3
 3042a60:	10800003 	ldbu	r2,0(r2)
 3042a64:	10803fcc 	andi	r2,r2,255
 3042a68:	10800c30 	cmpltui	r2,r2,48
 3042a6c:	10000f1e 	bne	r2,zero,3042aac <read_lyrics+0x6b8>
               {
                 timetemp[e]=buffer[a];
 3042a70:	e134f517 	ldw	r4,-11308(fp)
 3042a74:	e0f4fa17 	ldw	r3,-11288(fp)
 3042a78:	e0b56804 	addi	r2,fp,-10848
 3042a7c:	10c5883a 	add	r2,r2,r3
 3042a80:	10800003 	ldbu	r2,0(r2)
 3042a84:	10c03fcc 	andi	r3,r2,255
 3042a88:	2105883a 	add	r2,r4,r4
 3042a8c:	1085883a 	add	r2,r2,r2
 3042a90:	e1b4f304 	addi	r6,fp,-11316
 3042a94:	1185883a 	add	r2,r2,r6
 3042a98:	10800b04 	addi	r2,r2,44
 3042a9c:	10c00015 	stw	r3,0(r2)
                 e++;
 3042aa0:	e0b4f517 	ldw	r2,-11308(fp)
 3042aa4:	10800044 	addi	r2,r2,1
 3042aa8:	e0b4f515 	stw	r2,-11308(fp)
               }
               a++;             
 3042aac:	e0b4fa17 	ldw	r2,-11288(fp)
 3042ab0:	10800044 	addi	r2,r2,1
 3042ab4:	e0b4fa15 	stw	r2,-11288(fp)
               if(a>=512)                   //read next cluster when finish the current one
 3042ab8:	e0b4fa17 	ldw	r2,-11288(fp)
 3042abc:	10808030 	cmpltui	r2,r2,512
 3042ac0:	10000e1e 	bne	r2,zero,3042afc <read_lyrics+0x708>
               {
                 j++;
 3042ac4:	e0b4f617 	ldw	r2,-11304(fp)
 3042ac8:	10800044 	addi	r2,r2,1
 3042acc:	e0b4f615 	stw	r2,-11304(fp)
                 SD_read_lba(buffer,j,1); 
 3042ad0:	e1356804 	addi	r4,fp,-10848
 3042ad4:	e174f617 	ldw	r5,-11304(fp)
 3042ad8:	01800044 	movi	r6,1
 3042adc:	30439440 	call	3043944 <SD_read_lba>
                 SD_read_lba(buffer+512,j+1,1); 
 3042ae0:	e0b56804 	addi	r2,fp,-10848
 3042ae4:	11008004 	addi	r4,r2,512
 3042ae8:	e0b4f617 	ldw	r2,-11304(fp)
 3042aec:	11400044 	addi	r5,r2,1
 3042af0:	01800044 	movi	r6,1
 3042af4:	30439440 	call	3043944 <SD_read_lba>
                 a=0;
 3042af8:	e034fa15 	stw	zero,-11288(fp)
        {
          for(b=1;buffer[a+b*10]=='[';b++);  //how many timinginformation for this repeading line
          for(c=0;c<b;c++)                  //read all information regarding to this line
          {
             e=0;
             for(d=0;d<10;d++)
 3042afc:	e0b4f717 	ldw	r2,-11300(fp)
 3042b00:	10800044 	addi	r2,r2,1
 3042b04:	e0b4f715 	stw	r2,-11300(fp)
 3042b08:	e0b4f717 	ldw	r2,-11300(fp)
 3042b0c:	108002b0 	cmpltui	r2,r2,10
 3042b10:	103fc91e 	bne	r2,zero,3042a38 <read_lyrics+0x644>
                 SD_read_lba(buffer,j,1); 
                 SD_read_lba(buffer+512,j+1,1); 
                 a=0;
               }   
             }
             temp_time[numb0]=(((timetemp[0]-0x30)*10+
 3042b14:	e434f317 	ldw	r16,-11316(fp)
 3042b18:	e0b4fe17 	ldw	r2,-11272(fp)
 3042b1c:	10c002a4 	muli	r3,r2,10
 3042b20:	e0b4ff17 	ldw	r2,-11268(fp)
 3042b24:	1885883a 	add	r2,r3,r2
 3042b28:	10c5dc24 	muli	r3,r2,6000
 3042b2c:	e0b50017 	ldw	r2,-11264(fp)
 3042b30:	1080fa24 	muli	r2,r2,1000
 3042b34:	1887883a 	add	r3,r3,r2
 3042b38:	e0b50117 	ldw	r2,-11260(fp)
 3042b3c:	10801924 	muli	r2,r2,100
 3042b40:	1887883a 	add	r3,r3,r2
 3042b44:	e0b50317 	ldw	r2,-11252(fp)
 3042b48:	108002a4 	muli	r2,r2,10
 3042b4c:	1887883a 	add	r3,r3,r2
 3042b50:	e0b50317 	ldw	r2,-11252(fp)
 3042b54:	1885883a 	add	r2,r3,r2
 3042b58:	10c05de4 	muli	r3,r2,375
 3042b5c:	00adfff4 	movhi	r2,47103
 3042b60:	109a7404 	addi	r2,r2,27088
 3042b64:	1889883a 	add	r4,r3,r2
 3042b68:	01401904 	movi	r5,100
 3042b6c:	30449600 	call	3044960 <__udivsi3>
 3042b70:	1007883a 	mov	r3,r2
 3042b74:	8405883a 	add	r2,r16,r16
 3042b78:	1085883a 	add	r2,r2,r2
 3042b7c:	e134f304 	addi	r4,fp,-11316
 3042b80:	1105883a 	add	r2,r2,r4
 3042b84:	10801104 	addi	r2,r2,68
 3042b88:	10c00015 	stw	r3,0(r2)
                              (timetemp[1]-0x30))*6000+
                              (timetemp[2]-0x30)*1000+
                              (timetemp[3]-0x30)*100+
                              (timetemp[5]-0x30)*10+
                              (timetemp[5]-0x30))*375/100;  //convert timing to cluster number
             numb0++;
 3042b8c:	e0b4f317 	ldw	r2,-11316(fp)
 3042b90:	10800044 	addi	r2,r2,1
 3042b94:	e0b4f315 	stw	r2,-11316(fp)
          numb0++;
        }                           //finish reading this line
        else if(buffer[a]=='['&&buffer[a+1]<='9'&&buffer[a+1]>='0'&&buffer[a+10]=='[')  //if there's repeat lines
        {
          for(b=1;buffer[a+b*10]=='[';b++);  //how many timinginformation for this repeading line
          for(c=0;c<b;c++)                  //read all information regarding to this line
 3042b98:	e0b4f817 	ldw	r2,-11296(fp)
 3042b9c:	10800044 	addi	r2,r2,1
 3042ba0:	e0b4f815 	stw	r2,-11296(fp)
 3042ba4:	e0f4f817 	ldw	r3,-11296(fp)
 3042ba8:	e0b4f917 	ldw	r2,-11292(fp)
 3042bac:	18bf9f36 	bltu	r3,r2,3042a2c <read_lyrics+0x638>
                              (timetemp[5]-0x30)*10+
                              (timetemp[5]-0x30))*375/100;  //convert timing to cluster number
             numb0++;
              
          }
          for(c=0;c<96;) //read long lyric
 3042bb0:	e034f815 	stw	zero,-11296(fp)
 3042bb4:	00005406 	br	3042d08 <read_lyrics+0x914>
          {
            if(buffer[a]!=0x0d&&buffer[a+1]!=0x0a)
 3042bb8:	e0f4fa17 	ldw	r3,-11288(fp)
 3042bbc:	e0b56804 	addi	r2,fp,-10848
 3042bc0:	10c5883a 	add	r2,r2,r3
 3042bc4:	10800003 	ldbu	r2,0(r2)
 3042bc8:	10803fcc 	andi	r2,r2,255
 3042bcc:	10800360 	cmpeqi	r2,r2,13
 3042bd0:	1000501e 	bne	r2,zero,3042d14 <read_lyrics+0x920>
 3042bd4:	e0b4fa17 	ldw	r2,-11288(fp)
 3042bd8:	10c00044 	addi	r3,r2,1
 3042bdc:	e0b56804 	addi	r2,fp,-10848
 3042be0:	10c5883a 	add	r2,r2,r3
 3042be4:	10800003 	ldbu	r2,0(r2)
 3042be8:	10803fcc 	andi	r2,r2,255
 3042bec:	108002a0 	cmpeqi	r2,r2,10
 3042bf0:	1000481e 	bne	r2,zero,3042d14 <read_lyrics+0x920>
            {
              if((buffer[a]>=0x21&&buffer[a]<=0x7e)||buffer[a]==' ')
 3042bf4:	e0f4fa17 	ldw	r3,-11288(fp)
 3042bf8:	e0b56804 	addi	r2,fp,-10848
 3042bfc:	10c5883a 	add	r2,r2,r3
 3042c00:	10800003 	ldbu	r2,0(r2)
 3042c04:	10803fcc 	andi	r2,r2,255
 3042c08:	10800870 	cmpltui	r2,r2,33
 3042c0c:	1000071e 	bne	r2,zero,3042c2c <read_lyrics+0x838>
 3042c10:	e0f4fa17 	ldw	r3,-11288(fp)
 3042c14:	e0b56804 	addi	r2,fp,-10848
 3042c18:	10c5883a 	add	r2,r2,r3
 3042c1c:	10800003 	ldbu	r2,0(r2)
 3042c20:	10803fcc 	andi	r2,r2,255
 3042c24:	10801ff0 	cmpltui	r2,r2,127
 3042c28:	1000071e 	bne	r2,zero,3042c48 <read_lyrics+0x854>
 3042c2c:	e0f4fa17 	ldw	r3,-11288(fp)
 3042c30:	e0b56804 	addi	r2,fp,-10848
 3042c34:	10c5883a 	add	r2,r2,r3
 3042c38:	10800003 	ldbu	r2,0(r2)
 3042c3c:	10803fcc 	andi	r2,r2,255
 3042c40:	10800818 	cmpnei	r2,r2,32
 3042c44:	10001c1e 	bne	r2,zero,3042cb8 <read_lyrics+0x8c4>
              {
                for(d=0;d<b;d++)
 3042c48:	e034f715 	stw	zero,-11300(fp)
 3042c4c:	00001406 	br	3042ca0 <read_lyrics+0x8ac>
                {
                  temp[numb0-b+d][c]=buffer[a];
 3042c50:	e0f4f317 	ldw	r3,-11316(fp)
 3042c54:	e0b4f917 	ldw	r2,-11292(fp)
 3042c58:	1887c83a 	sub	r3,r3,r2
 3042c5c:	e0b4f717 	ldw	r2,-11300(fp)
 3042c60:	1889883a 	add	r4,r3,r2
 3042c64:	e174f817 	ldw	r5,-11296(fp)
 3042c68:	e0f4fa17 	ldw	r3,-11288(fp)
 3042c6c:	e0b56804 	addi	r2,fp,-10848
 3042c70:	10c5883a 	add	r2,r2,r3
 3042c74:	10800003 	ldbu	r2,0(r2)
 3042c78:	1007883a 	mov	r3,r2
 3042c7c:	20801864 	muli	r2,r4,97
 3042c80:	e1b4f304 	addi	r6,fp,-11316
 3042c84:	1185883a 	add	r2,r2,r6
 3042c88:	1145883a 	add	r2,r2,r5
 3042c8c:	10817504 	addi	r2,r2,1492
 3042c90:	10c00005 	stb	r3,0(r2)
          {
            if(buffer[a]!=0x0d&&buffer[a+1]!=0x0a)
            {
              if((buffer[a]>=0x21&&buffer[a]<=0x7e)||buffer[a]==' ')
              {
                for(d=0;d<b;d++)
 3042c94:	e0b4f717 	ldw	r2,-11300(fp)
 3042c98:	10800044 	addi	r2,r2,1
 3042c9c:	e0b4f715 	stw	r2,-11300(fp)
 3042ca0:	e0f4f717 	ldw	r3,-11300(fp)
 3042ca4:	e0b4f917 	ldw	r2,-11292(fp)
 3042ca8:	18bfe936 	bltu	r3,r2,3042c50 <read_lyrics+0x85c>
                {
                  temp[numb0-b+d][c]=buffer[a];
                }
                c++;
 3042cac:	e0b4f817 	ldw	r2,-11296(fp)
 3042cb0:	10800044 	addi	r2,r2,1
 3042cb4:	e0b4f815 	stw	r2,-11296(fp)
              }
              a++;            
 3042cb8:	e0b4fa17 	ldw	r2,-11288(fp)
 3042cbc:	10800044 	addi	r2,r2,1
 3042cc0:	e0b4fa15 	stw	r2,-11288(fp)
              if(a>=512)
 3042cc4:	e0b4fa17 	ldw	r2,-11288(fp)
 3042cc8:	10808030 	cmpltui	r2,r2,512
 3042ccc:	10000e1e 	bne	r2,zero,3042d08 <read_lyrics+0x914>
              {
               j++;
 3042cd0:	e0b4f617 	ldw	r2,-11304(fp)
 3042cd4:	10800044 	addi	r2,r2,1
 3042cd8:	e0b4f615 	stw	r2,-11304(fp)
               SD_read_lba(buffer,j,1);
 3042cdc:	e1356804 	addi	r4,fp,-10848
 3042ce0:	e174f617 	ldw	r5,-11304(fp)
 3042ce4:	01800044 	movi	r6,1
 3042ce8:	30439440 	call	3043944 <SD_read_lba>
               SD_read_lba(buffer+512,j+1,1);
 3042cec:	e0b56804 	addi	r2,fp,-10848
 3042cf0:	11008004 	addi	r4,r2,512
 3042cf4:	e0b4f617 	ldw	r2,-11304(fp)
 3042cf8:	11400044 	addi	r5,r2,1
 3042cfc:	01800044 	movi	r6,1
 3042d00:	30439440 	call	3043944 <SD_read_lba>
               a=0;
 3042d04:	e034fa15 	stw	zero,-11288(fp)
                              (timetemp[5]-0x30)*10+
                              (timetemp[5]-0x30))*375/100;  //convert timing to cluster number
             numb0++;
              
          }
          for(c=0;c<96;) //read long lyric
 3042d08:	e0b4f817 	ldw	r2,-11296(fp)
 3042d0c:	10801830 	cmpltui	r2,r2,96
 3042d10:	103fa91e 	bne	r2,zero,3042bb8 <read_lyrics+0x7c4>
              } 
            } 
            else
              break;                       
          }          
          for(d=0;d<b;d++)
 3042d14:	e034f715 	stw	zero,-11300(fp)
 3042d18:	00001106 	br	3042d60 <read_lyrics+0x96c>
          {
            temp[numb0-b+d][96]=c/32+1;
 3042d1c:	e0f4f317 	ldw	r3,-11316(fp)
 3042d20:	e0b4f917 	ldw	r2,-11292(fp)
 3042d24:	1887c83a 	sub	r3,r3,r2
 3042d28:	e0b4f717 	ldw	r2,-11300(fp)
 3042d2c:	1889883a 	add	r4,r3,r2
 3042d30:	e0b4f817 	ldw	r2,-11296(fp)
 3042d34:	1004d17a 	srli	r2,r2,5
 3042d38:	10800044 	addi	r2,r2,1
 3042d3c:	1007883a 	mov	r3,r2
 3042d40:	20801864 	muli	r2,r4,97
 3042d44:	e134f304 	addi	r4,fp,-11316
 3042d48:	1105883a 	add	r2,r2,r4
 3042d4c:	10818d04 	addi	r2,r2,1588
 3042d50:	10c00005 	stb	r3,0(r2)
              } 
            } 
            else
              break;                       
          }          
          for(d=0;d<b;d++)
 3042d54:	e0b4f717 	ldw	r2,-11300(fp)
 3042d58:	10800044 	addi	r2,r2,1
 3042d5c:	e0b4f715 	stw	r2,-11300(fp)
 3042d60:	e0f4f717 	ldw	r3,-11300(fp)
 3042d64:	e0b4f917 	ldw	r2,-11292(fp)
 3042d68:	18bfec36 	bltu	r3,r2,3042d1c <read_lyrics+0x928>
          {
            temp[numb0-b+d][96]=c/32+1;
          }
          for(;c<96;)
 3042d6c:	00001806 	br	3042dd0 <read_lyrics+0x9dc>
          {
              for(d=0;d<b;d++)
 3042d70:	e034f715 	stw	zero,-11300(fp)
 3042d74:	00001006 	br	3042db8 <read_lyrics+0x9c4>
              {
                temp[numb0-b+d][c]=0x20;
 3042d78:	e0f4f317 	ldw	r3,-11316(fp)
 3042d7c:	e0b4f917 	ldw	r2,-11292(fp)
 3042d80:	1887c83a 	sub	r3,r3,r2
 3042d84:	e0b4f717 	ldw	r2,-11300(fp)
 3042d88:	1885883a 	add	r2,r3,r2
 3042d8c:	e0f4f817 	ldw	r3,-11296(fp)
 3042d90:	10801864 	muli	r2,r2,97
 3042d94:	e174f304 	addi	r5,fp,-11316
 3042d98:	1145883a 	add	r2,r2,r5
 3042d9c:	10c5883a 	add	r2,r2,r3
 3042da0:	10c17504 	addi	r3,r2,1492
 3042da4:	00800804 	movi	r2,32
 3042da8:	18800005 	stb	r2,0(r3)
          {
            temp[numb0-b+d][96]=c/32+1;
          }
          for(;c<96;)
          {
              for(d=0;d<b;d++)
 3042dac:	e0b4f717 	ldw	r2,-11300(fp)
 3042db0:	10800044 	addi	r2,r2,1
 3042db4:	e0b4f715 	stw	r2,-11300(fp)
 3042db8:	e0f4f717 	ldw	r3,-11300(fp)
 3042dbc:	e0b4f917 	ldw	r2,-11292(fp)
 3042dc0:	18bfed36 	bltu	r3,r2,3042d78 <read_lyrics+0x984>
              {
                temp[numb0-b+d][c]=0x20;
              } 
              c++;     
 3042dc4:	e0b4f817 	ldw	r2,-11296(fp)
 3042dc8:	10800044 	addi	r2,r2,1
 3042dcc:	e0b4f815 	stw	r2,-11296(fp)
          }          
          for(d=0;d<b;d++)
          {
            temp[numb0-b+d][96]=c/32+1;
          }
          for(;c<96;)
 3042dd0:	e0b4f817 	ldw	r2,-11296(fp)
 3042dd4:	10801830 	cmpltui	r2,r2,96
 3042dd8:	103fe51e 	bne	r2,zero,3042d70 <read_lyrics+0x97c>
          temp[numb0][96]=c/32+1;  //how many 32 bits
          for(;c<96;c++)
              temp[numb0][c]=0x20;  //fill in if not a integer multiper of 32
          numb0++;
        }                           //finish reading this line
        else if(buffer[a]=='['&&buffer[a+1]<='9'&&buffer[a+1]>='0'&&buffer[a+10]=='[')  //if there's repeat lines
 3042ddc:	00001406 	br	3042e30 <read_lyrics+0xa3c>
              c++;     
          }         
        }
        else
        {
          a++;
 3042de0:	e0b4fa17 	ldw	r2,-11288(fp)
 3042de4:	10800044 	addi	r2,r2,1
 3042de8:	e0b4fa15 	stw	r2,-11288(fp)
          if(a>=512)
 3042dec:	e0b4fa17 	ldw	r2,-11288(fp)
 3042df0:	10808030 	cmpltui	r2,r2,512
 3042df4:	10000e1e 	bne	r2,zero,3042e30 <read_lyrics+0xa3c>
          {
               j++;
 3042df8:	e0b4f617 	ldw	r2,-11304(fp)
 3042dfc:	10800044 	addi	r2,r2,1
 3042e00:	e0b4f615 	stw	r2,-11304(fp)
               SD_read_lba(buffer,j,1); 
 3042e04:	e1356804 	addi	r4,fp,-10848
 3042e08:	e174f617 	ldw	r5,-11304(fp)
 3042e0c:	01800044 	movi	r6,1
 3042e10:	30439440 	call	3043944 <SD_read_lba>
               SD_read_lba(buffer+512,j+1,1); 
 3042e14:	e0b56804 	addi	r2,fp,-10848
 3042e18:	11008004 	addi	r4,r2,512
 3042e1c:	e0b4f617 	ldw	r2,-11304(fp)
 3042e20:	11400044 	addi	r5,r2,1
 3042e24:	01800044 	movi	r6,1
 3042e28:	30439440 	call	3043944 <SD_read_lba>
               a=0;
 3042e2c:	e034fa15 	stw	zero,-11288(fp)
    j=base;   
    SD_read_lba(buffer,j,1);//read
    SD_read_lba(buffer+512,j+1,1); //read
    a=0;
    
    while(j<base+*clupsec_num)    //read lyrics
 3042e30:	e0800317 	ldw	r2,12(fp)
 3042e34:	10800017 	ldw	r2,0(r2)
 3042e38:	1007883a 	mov	r3,r2
 3042e3c:	e0b4fb17 	ldw	r2,-11284(fp)
 3042e40:	1887883a 	add	r3,r3,r2
 3042e44:	e0b4f617 	ldw	r2,-11304(fp)
 3042e48:	10fdb636 	bltu	r2,r3,3042524 <read_lyrics+0x130>
          } 
        }
        
       } 
    }
    for(i=0;i<numb0-1;i++)   //sorting lyric according to timing info
 3042e4c:	e034fd15 	stw	zero,-11276(fp)
 3042e50:	00006a06 	br	3042ffc <read_lyrics+0xc08>
    
    {
      for(j=i+1;j<numb0;j++)
 3042e54:	e0b4fd17 	ldw	r2,-11276(fp)
 3042e58:	10800044 	addi	r2,r2,1
 3042e5c:	e0b4f615 	stw	r2,-11304(fp)
 3042e60:	00006006 	br	3042fe4 <read_lyrics+0xbf0>
      {
        if(temp_time[i]>temp_time[j])
 3042e64:	e0b4fd17 	ldw	r2,-11276(fp)
 3042e68:	1085883a 	add	r2,r2,r2
 3042e6c:	1085883a 	add	r2,r2,r2
 3042e70:	e1b4f304 	addi	r6,fp,-11316
 3042e74:	1185883a 	add	r2,r2,r6
 3042e78:	10801104 	addi	r2,r2,68
 3042e7c:	10c00017 	ldw	r3,0(r2)
 3042e80:	e0b4f617 	ldw	r2,-11304(fp)
 3042e84:	1085883a 	add	r2,r2,r2
 3042e88:	1085883a 	add	r2,r2,r2
 3042e8c:	e134f304 	addi	r4,fp,-11316
 3042e90:	1105883a 	add	r2,r2,r4
 3042e94:	10801104 	addi	r2,r2,68
 3042e98:	10800017 	ldw	r2,0(r2)
 3042e9c:	10c04e2e 	bgeu	r2,r3,3042fd8 <read_lyrics+0xbe4>
        {
          temp0=temp_time[i];
 3042ea0:	e0b4fd17 	ldw	r2,-11276(fp)
 3042ea4:	1085883a 	add	r2,r2,r2
 3042ea8:	1085883a 	add	r2,r2,r2
 3042eac:	e174f304 	addi	r5,fp,-11316
 3042eb0:	1145883a 	add	r2,r2,r5
 3042eb4:	10801104 	addi	r2,r2,68
 3042eb8:	10800017 	ldw	r2,0(r2)
 3042ebc:	e0b4f415 	stw	r2,-11312(fp)
          temp_time[i]=temp_time[j];
 3042ec0:	e0f4fd17 	ldw	r3,-11276(fp)
 3042ec4:	e0b4f617 	ldw	r2,-11304(fp)
 3042ec8:	1085883a 	add	r2,r2,r2
 3042ecc:	1085883a 	add	r2,r2,r2
 3042ed0:	e1b4f304 	addi	r6,fp,-11316
 3042ed4:	1185883a 	add	r2,r2,r6
 3042ed8:	10801104 	addi	r2,r2,68
 3042edc:	11000017 	ldw	r4,0(r2)
 3042ee0:	18c5883a 	add	r2,r3,r3
 3042ee4:	1085883a 	add	r2,r2,r2
 3042ee8:	e0f4f304 	addi	r3,fp,-11316
 3042eec:	10c5883a 	add	r2,r2,r3
 3042ef0:	10801104 	addi	r2,r2,68
 3042ef4:	11000015 	stw	r4,0(r2)
          temp_time[j]=temp0;
 3042ef8:	e0b4f617 	ldw	r2,-11304(fp)
 3042efc:	1085883a 	add	r2,r2,r2
 3042f00:	1085883a 	add	r2,r2,r2
 3042f04:	e134f304 	addi	r4,fp,-11316
 3042f08:	1105883a 	add	r2,r2,r4
 3042f0c:	10c01104 	addi	r3,r2,68
 3042f10:	e0b4f417 	ldw	r2,-11312(fp)
 3042f14:	18800015 	stw	r2,0(r3)
          for(c=0;c<97;c++)
 3042f18:	e034f815 	stw	zero,-11296(fp)
 3042f1c:	00002b06 	br	3042fcc <read_lyrics+0xbd8>
          {
            tempp[c]=temp[i][c];
 3042f20:	e134f817 	ldw	r4,-11296(fp)
 3042f24:	e0b4fd17 	ldw	r2,-11276(fp)
 3042f28:	e0f4f817 	ldw	r3,-11296(fp)
 3042f2c:	10801864 	muli	r2,r2,97
 3042f30:	e174f304 	addi	r5,fp,-11316
 3042f34:	1145883a 	add	r2,r2,r5
 3042f38:	10c5883a 	add	r2,r2,r3
 3042f3c:	10817504 	addi	r2,r2,1492
 3042f40:	10c00003 	ldbu	r3,0(r2)
 3042f44:	e0bfe104 	addi	r2,fp,-124
 3042f48:	1105883a 	add	r2,r2,r4
 3042f4c:	10c00005 	stb	r3,0(r2)
            temp[i][c]=temp[j][c];
 3042f50:	e134fd17 	ldw	r4,-11276(fp)
 3042f54:	e174f817 	ldw	r5,-11296(fp)
 3042f58:	e0b4f617 	ldw	r2,-11304(fp)
 3042f5c:	e0f4f817 	ldw	r3,-11296(fp)
 3042f60:	10801864 	muli	r2,r2,97
 3042f64:	e1b4f304 	addi	r6,fp,-11316
 3042f68:	1185883a 	add	r2,r2,r6
 3042f6c:	10c5883a 	add	r2,r2,r3
 3042f70:	10817504 	addi	r2,r2,1492
 3042f74:	10c00003 	ldbu	r3,0(r2)
 3042f78:	20801864 	muli	r2,r4,97
 3042f7c:	e134f304 	addi	r4,fp,-11316
 3042f80:	1105883a 	add	r2,r2,r4
 3042f84:	1145883a 	add	r2,r2,r5
 3042f88:	10817504 	addi	r2,r2,1492
 3042f8c:	10c00005 	stb	r3,0(r2)
            temp[j][c]=tempp[c];
 3042f90:	e134f617 	ldw	r4,-11304(fp)
 3042f94:	e174f817 	ldw	r5,-11296(fp)
 3042f98:	e0f4f817 	ldw	r3,-11296(fp)
 3042f9c:	e0bfe104 	addi	r2,fp,-124
 3042fa0:	10c5883a 	add	r2,r2,r3
 3042fa4:	10c00003 	ldbu	r3,0(r2)
 3042fa8:	20801864 	muli	r2,r4,97
 3042fac:	e1b4f304 	addi	r6,fp,-11316
 3042fb0:	1185883a 	add	r2,r2,r6
 3042fb4:	1145883a 	add	r2,r2,r5
 3042fb8:	10817504 	addi	r2,r2,1492
 3042fbc:	10c00005 	stb	r3,0(r2)
        if(temp_time[i]>temp_time[j])
        {
          temp0=temp_time[i];
          temp_time[i]=temp_time[j];
          temp_time[j]=temp0;
          for(c=0;c<97;c++)
 3042fc0:	e0b4f817 	ldw	r2,-11296(fp)
 3042fc4:	10800044 	addi	r2,r2,1
 3042fc8:	e0b4f815 	stw	r2,-11296(fp)
 3042fcc:	e0b4f817 	ldw	r2,-11296(fp)
 3042fd0:	10801870 	cmpltui	r2,r2,97
 3042fd4:	103fd21e 	bne	r2,zero,3042f20 <read_lyrics+0xb2c>
       } 
    }
    for(i=0;i<numb0-1;i++)   //sorting lyric according to timing info
    
    {
      for(j=i+1;j<numb0;j++)
 3042fd8:	e0b4f617 	ldw	r2,-11304(fp)
 3042fdc:	10800044 	addi	r2,r2,1
 3042fe0:	e0b4f615 	stw	r2,-11304(fp)
 3042fe4:	e0f4f617 	ldw	r3,-11304(fp)
 3042fe8:	e0b4f317 	ldw	r2,-11316(fp)
 3042fec:	18bf9d36 	bltu	r3,r2,3042e64 <read_lyrics+0xa70>
          } 
        }
        
       } 
    }
    for(i=0;i<numb0-1;i++)   //sorting lyric according to timing info
 3042ff0:	e0b4fd17 	ldw	r2,-11276(fp)
 3042ff4:	10800044 	addi	r2,r2,1
 3042ff8:	e0b4fd15 	stw	r2,-11276(fp)
 3042ffc:	e0b4f317 	ldw	r2,-11316(fp)
 3043000:	10ffffc4 	addi	r3,r2,-1
 3043004:	e0b4fd17 	ldw	r2,-11276(fp)
 3043008:	10ff9236 	bltu	r2,r3,3042e54 <read_lyrics+0xa60>
          }
        }
      }
    }
    
    for(j=0;j<numb0;j++)
 304300c:	e034f615 	stw	zero,-11304(fp)
 3043010:	0000e806 	br	30433b4 <read_lyrics+0xfc0>
    { 
      switch(temp[j][96])    //convert long lyric to short ones for display
 3043014:	e0b4f617 	ldw	r2,-11304(fp)
 3043018:	10801864 	muli	r2,r2,97
 304301c:	e0f4f304 	addi	r3,fp,-11316
 3043020:	10c5883a 	add	r2,r2,r3
 3043024:	10818d04 	addi	r2,r2,1588
 3043028:	10800003 	ldbu	r2,0(r2)
 304302c:	10803fcc 	andi	r2,r2,255
 3043030:	1080201c 	xori	r2,r2,128
 3043034:	10bfe004 	addi	r2,r2,-128
 3043038:	e0bffe15 	stw	r2,-8(fp)
 304303c:	e13ffe17 	ldw	r4,-8(fp)
 3043040:	208000a0 	cmpeqi	r2,r4,2
 3043044:	1000311e 	bne	r2,zero,304310c <read_lyrics+0xd18>
 3043048:	e17ffe17 	ldw	r5,-8(fp)
 304304c:	288000e0 	cmpeqi	r2,r5,3
 3043050:	1000751e 	bne	r2,zero,3043228 <read_lyrics+0xe34>
 3043054:	e1bffe17 	ldw	r6,-8(fp)
 3043058:	30800060 	cmpeqi	r2,r6,1
 304305c:	1000011e 	bne	r2,zero,3043064 <read_lyrics+0xc70>
 3043060:	0000d106 	br	30433a8 <read_lyrics+0xfb4>
      {
            case 1:lyrics->time[numb1]=temp_time[j];
 3043064:	e174fc17 	ldw	r5,-11280(fp)
 3043068:	e0b4f617 	ldw	r2,-11304(fp)
 304306c:	1085883a 	add	r2,r2,r2
 3043070:	1085883a 	add	r2,r2,r2
 3043074:	e0f4f304 	addi	r3,fp,-11316
 3043078:	10c5883a 	add	r2,r2,r3
 304307c:	10801104 	addi	r2,r2,68
 3043080:	10800017 	ldw	r2,0(r2)
 3043084:	1009883a 	mov	r4,r2
 3043088:	e0fffc17 	ldw	r3,-16(fp)
 304308c:	2945883a 	add	r2,r5,r5
 3043090:	1085883a 	add	r2,r2,r2
 3043094:	10c5883a 	add	r2,r2,r3
 3043098:	11000015 	stw	r4,0(r2)
                   for(i=0;i<32;i++)
 304309c:	e034fd15 	stw	zero,-11276(fp)
 30430a0:	00001306 	br	30430f0 <read_lyrics+0xcfc>
                    lyrics->text[numb1][i]=temp[j][i];
 30430a4:	e134fc17 	ldw	r4,-11280(fp)
 30430a8:	e1b4fd17 	ldw	r6,-11276(fp)
 30430ac:	e0b4f617 	ldw	r2,-11304(fp)
 30430b0:	e0f4fd17 	ldw	r3,-11276(fp)
 30430b4:	10801864 	muli	r2,r2,97
 30430b8:	e174f304 	addi	r5,fp,-11316
 30430bc:	1145883a 	add	r2,r2,r5
 30430c0:	10c5883a 	add	r2,r2,r3
 30430c4:	10817504 	addi	r2,r2,1492
 30430c8:	11400003 	ldbu	r5,0(r2)
 30430cc:	e0fffc17 	ldw	r3,-16(fp)
 30430d0:	2004917a 	slli	r2,r4,5
 30430d4:	10c5883a 	add	r2,r2,r3
 30430d8:	1185883a 	add	r2,r2,r6
 30430dc:	10812c04 	addi	r2,r2,1200
 30430e0:	11400005 	stb	r5,0(r2)
    for(j=0;j<numb0;j++)
    { 
      switch(temp[j][96])    //convert long lyric to short ones for display
      {
            case 1:lyrics->time[numb1]=temp_time[j];
                   for(i=0;i<32;i++)
 30430e4:	e0b4fd17 	ldw	r2,-11276(fp)
 30430e8:	10800044 	addi	r2,r2,1
 30430ec:	e0b4fd15 	stw	r2,-11276(fp)
 30430f0:	e0b4fd17 	ldw	r2,-11276(fp)
 30430f4:	10800830 	cmpltui	r2,r2,32
 30430f8:	103fea1e 	bne	r2,zero,30430a4 <read_lyrics+0xcb0>
                    lyrics->text[numb1][i]=temp[j][i];
                   numb1++;
 30430fc:	e0b4fc17 	ldw	r2,-11280(fp)
 3043100:	10800044 	addi	r2,r2,1
 3043104:	e0b4fc15 	stw	r2,-11280(fp)
                   break;
 3043108:	0000a706 	br	30433a8 <read_lyrics+0xfb4>
            case 2:lyrics->time[numb1]=temp_time[j];
 304310c:	e174fc17 	ldw	r5,-11280(fp)
 3043110:	e0b4f617 	ldw	r2,-11304(fp)
 3043114:	1085883a 	add	r2,r2,r2
 3043118:	1085883a 	add	r2,r2,r2
 304311c:	e1b4f304 	addi	r6,fp,-11316
 3043120:	1185883a 	add	r2,r2,r6
 3043124:	10801104 	addi	r2,r2,68
 3043128:	10800017 	ldw	r2,0(r2)
 304312c:	1009883a 	mov	r4,r2
 3043130:	e0fffc17 	ldw	r3,-16(fp)
 3043134:	2945883a 	add	r2,r5,r5
 3043138:	1085883a 	add	r2,r2,r2
 304313c:	10c5883a 	add	r2,r2,r3
 3043140:	11000015 	stw	r4,0(r2)
                   lyrics->time[numb1+1]=(temp_time[j]+temp_time[j+1])/2;
 3043144:	e0b4fc17 	ldw	r2,-11280(fp)
 3043148:	11400044 	addi	r5,r2,1
 304314c:	e0b4f617 	ldw	r2,-11304(fp)
 3043150:	1085883a 	add	r2,r2,r2
 3043154:	1085883a 	add	r2,r2,r2
 3043158:	e0f4f304 	addi	r3,fp,-11316
 304315c:	10c5883a 	add	r2,r2,r3
 3043160:	10801104 	addi	r2,r2,68
 3043164:	10c00017 	ldw	r3,0(r2)
 3043168:	e0b4f617 	ldw	r2,-11304(fp)
 304316c:	10800044 	addi	r2,r2,1
 3043170:	1085883a 	add	r2,r2,r2
 3043174:	1085883a 	add	r2,r2,r2
 3043178:	e134f304 	addi	r4,fp,-11316
 304317c:	1105883a 	add	r2,r2,r4
 3043180:	10801104 	addi	r2,r2,68
 3043184:	10800017 	ldw	r2,0(r2)
 3043188:	1885883a 	add	r2,r3,r2
 304318c:	1004d07a 	srli	r2,r2,1
 3043190:	1009883a 	mov	r4,r2
 3043194:	e0fffc17 	ldw	r3,-16(fp)
 3043198:	2945883a 	add	r2,r5,r5
 304319c:	1085883a 	add	r2,r2,r2
 30431a0:	10c5883a 	add	r2,r2,r3
 30431a4:	11000015 	stw	r4,0(r2)
                   for(i=0;i<64;i++)
 30431a8:	e034fd15 	stw	zero,-11276(fp)
 30431ac:	00001706 	br	304320c <read_lyrics+0xe18>
                     lyrics->text[numb1+i/32][i%32]=temp[j][i];
 30431b0:	e0b4fd17 	ldw	r2,-11276(fp)
 30431b4:	1006d17a 	srli	r3,r2,5
 30431b8:	e0b4fc17 	ldw	r2,-11280(fp)
 30431bc:	188b883a 	add	r5,r3,r2
 30431c0:	e0b4fd17 	ldw	r2,-11276(fp)
 30431c4:	118007cc 	andi	r6,r2,31
 30431c8:	e0b4f617 	ldw	r2,-11304(fp)
 30431cc:	e0f4fd17 	ldw	r3,-11276(fp)
 30431d0:	10801864 	muli	r2,r2,97
 30431d4:	e134f304 	addi	r4,fp,-11316
 30431d8:	1105883a 	add	r2,r2,r4
 30431dc:	10c5883a 	add	r2,r2,r3
 30431e0:	10817504 	addi	r2,r2,1492
 30431e4:	11000003 	ldbu	r4,0(r2)
 30431e8:	e0fffc17 	ldw	r3,-16(fp)
 30431ec:	2804917a 	slli	r2,r5,5
 30431f0:	10c5883a 	add	r2,r2,r3
 30431f4:	1185883a 	add	r2,r2,r6
 30431f8:	10812c04 	addi	r2,r2,1200
 30431fc:	11000005 	stb	r4,0(r2)
                    lyrics->text[numb1][i]=temp[j][i];
                   numb1++;
                   break;
            case 2:lyrics->time[numb1]=temp_time[j];
                   lyrics->time[numb1+1]=(temp_time[j]+temp_time[j+1])/2;
                   for(i=0;i<64;i++)
 3043200:	e0b4fd17 	ldw	r2,-11276(fp)
 3043204:	10800044 	addi	r2,r2,1
 3043208:	e0b4fd15 	stw	r2,-11276(fp)
 304320c:	e0b4fd17 	ldw	r2,-11276(fp)
 3043210:	10801030 	cmpltui	r2,r2,64
 3043214:	103fe61e 	bne	r2,zero,30431b0 <read_lyrics+0xdbc>
                     lyrics->text[numb1+i/32][i%32]=temp[j][i];
                   numb1+=2;
 3043218:	e0b4fc17 	ldw	r2,-11280(fp)
 304321c:	10800084 	addi	r2,r2,2
 3043220:	e0b4fc15 	stw	r2,-11280(fp)
                   break;
 3043224:	00006006 	br	30433a8 <read_lyrics+0xfb4>
            case 3:lyrics->time[numb1]=temp_time[j];
 3043228:	e174fc17 	ldw	r5,-11280(fp)
 304322c:	e0b4f617 	ldw	r2,-11304(fp)
 3043230:	1085883a 	add	r2,r2,r2
 3043234:	1085883a 	add	r2,r2,r2
 3043238:	e1b4f304 	addi	r6,fp,-11316
 304323c:	1185883a 	add	r2,r2,r6
 3043240:	10801104 	addi	r2,r2,68
 3043244:	10800017 	ldw	r2,0(r2)
 3043248:	1009883a 	mov	r4,r2
 304324c:	e0fffc17 	ldw	r3,-16(fp)
 3043250:	2945883a 	add	r2,r5,r5
 3043254:	1085883a 	add	r2,r2,r2
 3043258:	10c5883a 	add	r2,r2,r3
 304325c:	11000015 	stw	r4,0(r2)
                   lyrics->time[numb1+1]=(lyrics->time[j+1]+lyrics->time[j]*2)/3; 
 3043260:	e0b4fc17 	ldw	r2,-11280(fp)
 3043264:	14000044 	addi	r16,r2,1
 3043268:	e0b4f617 	ldw	r2,-11304(fp)
 304326c:	10800044 	addi	r2,r2,1
 3043270:	e0fffc17 	ldw	r3,-16(fp)
 3043274:	1085883a 	add	r2,r2,r2
 3043278:	1085883a 	add	r2,r2,r2
 304327c:	10c5883a 	add	r2,r2,r3
 3043280:	11000017 	ldw	r4,0(r2)
 3043284:	e0b4f617 	ldw	r2,-11304(fp)
 3043288:	e0fffc17 	ldw	r3,-16(fp)
 304328c:	1085883a 	add	r2,r2,r2
 3043290:	1085883a 	add	r2,r2,r2
 3043294:	10c5883a 	add	r2,r2,r3
 3043298:	10800017 	ldw	r2,0(r2)
 304329c:	1085883a 	add	r2,r2,r2
 30432a0:	2089883a 	add	r4,r4,r2
 30432a4:	014000c4 	movi	r5,3
 30432a8:	30448a00 	call	30448a0 <__divsi3>
 30432ac:	1009883a 	mov	r4,r2
 30432b0:	e0fffc17 	ldw	r3,-16(fp)
 30432b4:	8405883a 	add	r2,r16,r16
 30432b8:	1085883a 	add	r2,r2,r2
 30432bc:	10c5883a 	add	r2,r2,r3
 30432c0:	11000015 	stw	r4,0(r2)
                   lyrics->time[numb1+2]=(lyrics->time[j+1]*2+lyrics->time[j])/3;
 30432c4:	e0b4fc17 	ldw	r2,-11280(fp)
 30432c8:	14000084 	addi	r16,r2,2
 30432cc:	e0b4f617 	ldw	r2,-11304(fp)
 30432d0:	10800044 	addi	r2,r2,1
 30432d4:	e0fffc17 	ldw	r3,-16(fp)
 30432d8:	1085883a 	add	r2,r2,r2
 30432dc:	1085883a 	add	r2,r2,r2
 30432e0:	10c5883a 	add	r2,r2,r3
 30432e4:	10800017 	ldw	r2,0(r2)
 30432e8:	1085883a 	add	r2,r2,r2
 30432ec:	1009883a 	mov	r4,r2
 30432f0:	e0b4f617 	ldw	r2,-11304(fp)
 30432f4:	e0fffc17 	ldw	r3,-16(fp)
 30432f8:	1085883a 	add	r2,r2,r2
 30432fc:	1085883a 	add	r2,r2,r2
 3043300:	10c5883a 	add	r2,r2,r3
 3043304:	10800017 	ldw	r2,0(r2)
 3043308:	2089883a 	add	r4,r4,r2
 304330c:	014000c4 	movi	r5,3
 3043310:	30448a00 	call	30448a0 <__divsi3>
 3043314:	1009883a 	mov	r4,r2
 3043318:	e0fffc17 	ldw	r3,-16(fp)
 304331c:	8405883a 	add	r2,r16,r16
 3043320:	1085883a 	add	r2,r2,r2
 3043324:	10c5883a 	add	r2,r2,r3
 3043328:	11000015 	stw	r4,0(r2)
                   for(i=0;i<96;i++)
 304332c:	e034fd15 	stw	zero,-11276(fp)
 3043330:	00001706 	br	3043390 <read_lyrics+0xf9c>
                     lyrics->text[numb1+i/32][i%32]=temp[j][i];
 3043334:	e0b4fd17 	ldw	r2,-11276(fp)
 3043338:	1006d17a 	srli	r3,r2,5
 304333c:	e0b4fc17 	ldw	r2,-11280(fp)
 3043340:	188b883a 	add	r5,r3,r2
 3043344:	e0b4fd17 	ldw	r2,-11276(fp)
 3043348:	118007cc 	andi	r6,r2,31
 304334c:	e0b4f617 	ldw	r2,-11304(fp)
 3043350:	e0f4fd17 	ldw	r3,-11276(fp)
 3043354:	10801864 	muli	r2,r2,97
 3043358:	e134f304 	addi	r4,fp,-11316
 304335c:	1105883a 	add	r2,r2,r4
 3043360:	10c5883a 	add	r2,r2,r3
 3043364:	10817504 	addi	r2,r2,1492
 3043368:	11000003 	ldbu	r4,0(r2)
 304336c:	e0fffc17 	ldw	r3,-16(fp)
 3043370:	2804917a 	slli	r2,r5,5
 3043374:	10c5883a 	add	r2,r2,r3
 3043378:	1185883a 	add	r2,r2,r6
 304337c:	10812c04 	addi	r2,r2,1200
 3043380:	11000005 	stb	r4,0(r2)
                   numb1+=2;
                   break;
            case 3:lyrics->time[numb1]=temp_time[j];
                   lyrics->time[numb1+1]=(lyrics->time[j+1]+lyrics->time[j]*2)/3; 
                   lyrics->time[numb1+2]=(lyrics->time[j+1]*2+lyrics->time[j])/3;
                   for(i=0;i<96;i++)
 3043384:	e0b4fd17 	ldw	r2,-11276(fp)
 3043388:	10800044 	addi	r2,r2,1
 304338c:	e0b4fd15 	stw	r2,-11276(fp)
 3043390:	e0b4fd17 	ldw	r2,-11276(fp)
 3043394:	10801830 	cmpltui	r2,r2,96
 3043398:	103fe61e 	bne	r2,zero,3043334 <read_lyrics+0xf40>
                     lyrics->text[numb1+i/32][i%32]=temp[j][i];
                   numb1+=3;
 304339c:	e0b4fc17 	ldw	r2,-11280(fp)
 30433a0:	108000c4 	addi	r2,r2,3
 30433a4:	e0b4fc15 	stw	r2,-11280(fp)
          }
        }
      }
    }
    
    for(j=0;j<numb0;j++)
 30433a8:	e0b4f617 	ldw	r2,-11304(fp)
 30433ac:	10800044 	addi	r2,r2,1
 30433b0:	e0b4f615 	stw	r2,-11304(fp)
 30433b4:	e0f4f617 	ldw	r3,-11304(fp)
 30433b8:	e0b4f317 	ldw	r2,-11316(fp)
 30433bc:	18bf1536 	bltu	r3,r2,3043014 <read_lyrics+0xc20>
                   numb1+=3;
                   break;
           default:break;
      }  
    }  
    return numb1;
 30433c0:	e174fc17 	ldw	r5,-11280(fp)
 30433c4:	e17fff15 	stw	r5,-4(fp)
 30433c8:	e0bfff17 	ldw	r2,-4(fp)
  }
}//int
 30433cc:	e037883a 	mov	sp,fp
 30433d0:	dfc00217 	ldw	ra,8(sp)
 30433d4:	df000117 	ldw	fp,4(sp)
 30433d8:	dc000017 	ldw	r16,0(sp)
 30433dc:	dec00304 	addi	sp,sp,12
 30433e0:	f800283a 	ret

030433e4 <Ncr>:
#define SD_CLK_HIGH IOWR(SD_CLK_BASE, 0, 1)
//  SD Card Input Read
#define SD_TEST_CMD IORD(SD_CMD_BASE, 0)
#define SD_TEST_DAT IORD(SD_DAT_BASE, 0)
void Ncr(void)
{
 30433e4:	deffff04 	addi	sp,sp,-4
 30433e8:	df000015 	stw	fp,0(sp)
 30433ec:	d839883a 	mov	fp,sp
  SD_CMD_IN;
 30433f0:	00804034 	movhi	r2,256
 30433f4:	10803d04 	addi	r2,r2,244
 30433f8:	10000035 	stwio	zero,0(r2)
  SD_CLK_LOW;
 30433fc:	00804034 	movhi	r2,256
 3043400:	10804004 	addi	r2,r2,256
 3043404:	10000035 	stwio	zero,0(r2)
  SD_CLK_HIGH;
 3043408:	00c04034 	movhi	r3,256
 304340c:	18c04004 	addi	r3,r3,256
 3043410:	00800044 	movi	r2,1
 3043414:	18800035 	stwio	r2,0(r3)
  SD_CLK_LOW;
 3043418:	00804034 	movhi	r2,256
 304341c:	10804004 	addi	r2,r2,256
 3043420:	10000035 	stwio	zero,0(r2)
  SD_CLK_HIGH;
 3043424:	00c04034 	movhi	r3,256
 3043428:	18c04004 	addi	r3,r3,256
 304342c:	00800044 	movi	r2,1
 3043430:	18800035 	stwio	r2,0(r3)
} 
 3043434:	e037883a 	mov	sp,fp
 3043438:	df000017 	ldw	fp,0(sp)
 304343c:	dec00104 	addi	sp,sp,4
 3043440:	f800283a 	ret

03043444 <Ncc>:
//-------------------------------------------------------------------------
void Ncc(void)
{
 3043444:	defffe04 	addi	sp,sp,-8
 3043448:	df000115 	stw	fp,4(sp)
 304344c:	df000104 	addi	fp,sp,4
  int i;
  for(i=0;i<8;i++)
 3043450:	e03fff15 	stw	zero,-4(fp)
 3043454:	00000a06 	br	3043480 <Ncc+0x3c>
  {
    SD_CLK_LOW;
 3043458:	00804034 	movhi	r2,256
 304345c:	10804004 	addi	r2,r2,256
 3043460:	10000035 	stwio	zero,0(r2)
    SD_CLK_HIGH;
 3043464:	00c04034 	movhi	r3,256
 3043468:	18c04004 	addi	r3,r3,256
 304346c:	00800044 	movi	r2,1
 3043470:	18800035 	stwio	r2,0(r3)
} 
//-------------------------------------------------------------------------
void Ncc(void)
{
  int i;
  for(i=0;i<8;i++)
 3043474:	e0bfff17 	ldw	r2,-4(fp)
 3043478:	10800044 	addi	r2,r2,1
 304347c:	e0bfff15 	stw	r2,-4(fp)
 3043480:	e0bfff17 	ldw	r2,-4(fp)
 3043484:	10800210 	cmplti	r2,r2,8
 3043488:	103ff31e 	bne	r2,zero,3043458 <Ncc+0x14>
  {
    SD_CLK_LOW;
    SD_CLK_HIGH;
  }
}
 304348c:	e037883a 	mov	sp,fp
 3043490:	df000017 	ldw	fp,0(sp)
 3043494:	dec00104 	addi	sp,sp,4
 3043498:	f800283a 	ret

0304349c <SD_card_init>:
//-------------------------------------------------------------------------
BYTE SD_card_init(void)
{
 304349c:	defffc04 	addi	sp,sp,-16
 30434a0:	dfc00315 	stw	ra,12(sp)
 30434a4:	df000215 	stw	fp,8(sp)
 30434a8:	df000204 	addi	fp,sp,8
    BYTE x,y;
    SD_CMD_OUT;
 30434ac:	00c04034 	movhi	r3,256
 30434b0:	18c03d04 	addi	r3,r3,244
 30434b4:	00800044 	movi	r2,1
 30434b8:	18800035 	stwio	r2,0(r3)
    SD_DAT_IN;
 30434bc:	00804034 	movhi	r2,256
 30434c0:	10804504 	addi	r2,r2,276
 30434c4:	10000035 	stwio	zero,0(r2)
    SD_CLK_HIGH;
 30434c8:	00c04034 	movhi	r3,256
 30434cc:	18c04004 	addi	r3,r3,256
 30434d0:	00800044 	movi	r2,1
 30434d4:	18800035 	stwio	r2,0(r3)
    SD_CMD_HIGH;
 30434d8:	00c04034 	movhi	r3,256
 30434dc:	18c03c04 	addi	r3,r3,240
 30434e0:	00800044 	movi	r2,1
 30434e4:	18800035 	stwio	r2,0(r3)
    SD_DAT_LOW;
 30434e8:	00804034 	movhi	r2,256
 30434ec:	10804404 	addi	r2,r2,272
 30434f0:	10000035 	stwio	zero,0(r2)
    read_status=0;
 30434f4:	d0266e45 	stb	zero,-26183(gp)
    for(x=0;x<40;x++)
 30434f8:	e03ffe45 	stb	zero,-7(fp)
 30434fc:	00000406 	br	3043510 <SD_card_init+0x74>
    Ncr();
 3043500:	30433e40 	call	30433e4 <Ncr>
    SD_DAT_IN;
    SD_CLK_HIGH;
    SD_CMD_HIGH;
    SD_DAT_LOW;
    read_status=0;
    for(x=0;x<40;x++)
 3043504:	e0bffe43 	ldbu	r2,-7(fp)
 3043508:	10800044 	addi	r2,r2,1
 304350c:	e0bffe45 	stb	r2,-7(fp)
 3043510:	e0bffe43 	ldbu	r2,-7(fp)
 3043514:	10800a30 	cmpltui	r2,r2,40
 3043518:	103ff91e 	bne	r2,zero,3043500 <SD_card_init+0x64>
    Ncr();
    for(x=0;x<5;x++)
 304351c:	e03ffe45 	stb	zero,-7(fp)
 3043520:	00000b06 	br	3043550 <SD_card_init+0xb4>
    cmd_buffer[x]=cmd0[x];
 3043524:	e13ffe43 	ldbu	r4,-7(fp)
 3043528:	e0fffe43 	ldbu	r3,-7(fp)
 304352c:	d0a00004 	addi	r2,gp,-32768
 3043530:	1885883a 	add	r2,r3,r2
 3043534:	10c00003 	ldbu	r3,0(r2)
 3043538:	d0a66d04 	addi	r2,gp,-26188
 304353c:	2085883a 	add	r2,r4,r2
 3043540:	10c00005 	stb	r3,0(r2)
    SD_CMD_HIGH;
    SD_DAT_LOW;
    read_status=0;
    for(x=0;x<40;x++)
    Ncr();
    for(x=0;x<5;x++)
 3043544:	e0bffe43 	ldbu	r2,-7(fp)
 3043548:	10800044 	addi	r2,r2,1
 304354c:	e0bffe45 	stb	r2,-7(fp)
 3043550:	e0bffe43 	ldbu	r2,-7(fp)
 3043554:	10800170 	cmpltui	r2,r2,5
 3043558:	103ff21e 	bne	r2,zero,3043524 <SD_card_init+0x88>
    cmd_buffer[x]=cmd0[x];
    y = send_cmd(cmd_buffer);
 304355c:	d1266d04 	addi	r4,gp,-26188
 3043560:	3043db80 	call	3043db8 <send_cmd>
 3043564:	e0bffe05 	stb	r2,-8(fp)
    do
    {
      for(x=0;x<40;x++);
 3043568:	e03ffe45 	stb	zero,-7(fp)
 304356c:	00000306 	br	304357c <SD_card_init+0xe0>
 3043570:	e0bffe43 	ldbu	r2,-7(fp)
 3043574:	10800044 	addi	r2,r2,1
 3043578:	e0bffe45 	stb	r2,-7(fp)
 304357c:	e0bffe43 	ldbu	r2,-7(fp)
 3043580:	10800a30 	cmpltui	r2,r2,40
 3043584:	103ffa1e 	bne	r2,zero,3043570 <SD_card_init+0xd4>
      Ncc();
 3043588:	30434440 	call	3043444 <Ncc>
      for(x=0;x<5;x++)
 304358c:	e03ffe45 	stb	zero,-7(fp)
 3043590:	00000b06 	br	30435c0 <SD_card_init+0x124>
      cmd_buffer[x]=cmd55[x];
 3043594:	e13ffe43 	ldbu	r4,-7(fp)
 3043598:	e0fffe43 	ldbu	r3,-7(fp)
 304359c:	d0a00144 	addi	r2,gp,-32763
 30435a0:	1885883a 	add	r2,r3,r2
 30435a4:	10c00003 	ldbu	r3,0(r2)
 30435a8:	d0a66d04 	addi	r2,gp,-26188
 30435ac:	2085883a 	add	r2,r4,r2
 30435b0:	10c00005 	stb	r3,0(r2)
    y = send_cmd(cmd_buffer);
    do
    {
      for(x=0;x<40;x++);
      Ncc();
      for(x=0;x<5;x++)
 30435b4:	e0bffe43 	ldbu	r2,-7(fp)
 30435b8:	10800044 	addi	r2,r2,1
 30435bc:	e0bffe45 	stb	r2,-7(fp)
 30435c0:	e0bffe43 	ldbu	r2,-7(fp)
 30435c4:	10800170 	cmpltui	r2,r2,5
 30435c8:	103ff21e 	bne	r2,zero,3043594 <SD_card_init+0xf8>
      cmd_buffer[x]=cmd55[x];
      y = send_cmd(cmd_buffer);
 30435cc:	d1266d04 	addi	r4,gp,-26188
 30435d0:	3043db80 	call	3043db8 <send_cmd>
 30435d4:	e0bffe05 	stb	r2,-8(fp)
      Ncr();
 30435d8:	30433e40 	call	30433e4 <Ncr>
      if(response_R(1)>1) //response too long or crc error
 30435dc:	01000044 	movi	r4,1
 30435e0:	3043b3c0 	call	3043b3c <response_R>
 30435e4:	10803fcc 	andi	r2,r2,255
 30435e8:	108000b0 	cmpltui	r2,r2,2
 30435ec:	1000031e 	bne	r2,zero,30435fc <SD_card_init+0x160>
      return 1;
 30435f0:	00800044 	movi	r2,1
 30435f4:	e0bfff15 	stw	r2,-4(fp)
 30435f8:	0000cc06 	br	304392c <SD_card_init+0x490>
      Ncc();
 30435fc:	30434440 	call	3043444 <Ncc>
      for(x=0;x<5;x++)
 3043600:	e03ffe45 	stb	zero,-7(fp)
 3043604:	00000b06 	br	3043634 <SD_card_init+0x198>
      cmd_buffer[x]=acmd41[x];
 3043608:	e13ffe43 	ldbu	r4,-7(fp)
 304360c:	e0fffe43 	ldbu	r3,-7(fp)
 3043610:	d0a00c84 	addi	r2,gp,-32718
 3043614:	1885883a 	add	r2,r3,r2
 3043618:	10c00003 	ldbu	r3,0(r2)
 304361c:	d0a66d04 	addi	r2,gp,-26188
 3043620:	2085883a 	add	r2,r4,r2
 3043624:	10c00005 	stb	r3,0(r2)
      y = send_cmd(cmd_buffer);
      Ncr();
      if(response_R(1)>1) //response too long or crc error
      return 1;
      Ncc();
      for(x=0;x<5;x++)
 3043628:	e0bffe43 	ldbu	r2,-7(fp)
 304362c:	10800044 	addi	r2,r2,1
 3043630:	e0bffe45 	stb	r2,-7(fp)
 3043634:	e0bffe43 	ldbu	r2,-7(fp)
 3043638:	10800170 	cmpltui	r2,r2,5
 304363c:	103ff21e 	bne	r2,zero,3043608 <SD_card_init+0x16c>
      cmd_buffer[x]=acmd41[x];
      y = send_cmd(cmd_buffer);
 3043640:	d1266d04 	addi	r4,gp,-26188
 3043644:	3043db80 	call	3043db8 <send_cmd>
 3043648:	e0bffe05 	stb	r2,-8(fp)
      Ncr();      
 304364c:	30433e40 	call	30433e4 <Ncr>
    } while(response_R(3)==1);
 3043650:	010000c4 	movi	r4,3
 3043654:	3043b3c0 	call	3043b3c <response_R>
 3043658:	10803fcc 	andi	r2,r2,255
 304365c:	10800060 	cmpeqi	r2,r2,1
 3043660:	103fc11e 	bne	r2,zero,3043568 <SD_card_init+0xcc>
    Ncc();
 3043664:	30434440 	call	3043444 <Ncc>
    for(x=0;x<5;x++)
 3043668:	e03ffe45 	stb	zero,-7(fp)
 304366c:	00000b06 	br	304369c <SD_card_init+0x200>
    cmd_buffer[x]=cmd2[x];
 3043670:	e13ffe43 	ldbu	r4,-7(fp)
 3043674:	e0fffe43 	ldbu	r3,-7(fp)
 3043678:	d0a00284 	addi	r2,gp,-32758
 304367c:	1885883a 	add	r2,r3,r2
 3043680:	10c00003 	ldbu	r3,0(r2)
 3043684:	d0a66d04 	addi	r2,gp,-26188
 3043688:	2085883a 	add	r2,r4,r2
 304368c:	10c00005 	stb	r3,0(r2)
      cmd_buffer[x]=acmd41[x];
      y = send_cmd(cmd_buffer);
      Ncr();      
    } while(response_R(3)==1);
    Ncc();
    for(x=0;x<5;x++)
 3043690:	e0bffe43 	ldbu	r2,-7(fp)
 3043694:	10800044 	addi	r2,r2,1
 3043698:	e0bffe45 	stb	r2,-7(fp)
 304369c:	e0bffe43 	ldbu	r2,-7(fp)
 30436a0:	10800170 	cmpltui	r2,r2,5
 30436a4:	103ff21e 	bne	r2,zero,3043670 <SD_card_init+0x1d4>
    cmd_buffer[x]=cmd2[x];
    y = send_cmd(cmd_buffer);
 30436a8:	d1266d04 	addi	r4,gp,-26188
 30436ac:	3043db80 	call	3043db8 <send_cmd>
 30436b0:	e0bffe05 	stb	r2,-8(fp)
    Ncr();
 30436b4:	30433e40 	call	30433e4 <Ncr>
    if(response_R(2)>1)
 30436b8:	01000084 	movi	r4,2
 30436bc:	3043b3c0 	call	3043b3c <response_R>
 30436c0:	10803fcc 	andi	r2,r2,255
 30436c4:	108000b0 	cmpltui	r2,r2,2
 30436c8:	1000031e 	bne	r2,zero,30436d8 <SD_card_init+0x23c>
    return 1;
 30436cc:	00800044 	movi	r2,1
 30436d0:	e0bfff15 	stw	r2,-4(fp)
 30436d4:	00009506 	br	304392c <SD_card_init+0x490>
    Ncc();
 30436d8:	30434440 	call	3043444 <Ncc>
    for(x=0;x<5;x++)
 30436dc:	e03ffe45 	stb	zero,-7(fp)
 30436e0:	00000b06 	br	3043710 <SD_card_init+0x274>
    cmd_buffer[x]=cmd3[x];
 30436e4:	e13ffe43 	ldbu	r4,-7(fp)
 30436e8:	e0fffe43 	ldbu	r3,-7(fp)
 30436ec:	d0a003c4 	addi	r2,gp,-32753
 30436f0:	1885883a 	add	r2,r3,r2
 30436f4:	10c00003 	ldbu	r3,0(r2)
 30436f8:	d0a66d04 	addi	r2,gp,-26188
 30436fc:	2085883a 	add	r2,r4,r2
 3043700:	10c00005 	stb	r3,0(r2)
    y = send_cmd(cmd_buffer);
    Ncr();
    if(response_R(2)>1)
    return 1;
    Ncc();
    for(x=0;x<5;x++)
 3043704:	e0bffe43 	ldbu	r2,-7(fp)
 3043708:	10800044 	addi	r2,r2,1
 304370c:	e0bffe45 	stb	r2,-7(fp)
 3043710:	e0bffe43 	ldbu	r2,-7(fp)
 3043714:	10800170 	cmpltui	r2,r2,5
 3043718:	103ff21e 	bne	r2,zero,30436e4 <SD_card_init+0x248>
    cmd_buffer[x]=cmd3[x];
    y = send_cmd(cmd_buffer);
 304371c:	d1266d04 	addi	r4,gp,-26188
 3043720:	3043db80 	call	3043db8 <send_cmd>
 3043724:	e0bffe05 	stb	r2,-8(fp)
    Ncr();
 3043728:	30433e40 	call	30433e4 <Ncr>
    if(response_R(6)>1)
 304372c:	01000184 	movi	r4,6
 3043730:	3043b3c0 	call	3043b3c <response_R>
 3043734:	10803fcc 	andi	r2,r2,255
 3043738:	108000b0 	cmpltui	r2,r2,2
 304373c:	1000031e 	bne	r2,zero,304374c <SD_card_init+0x2b0>
    return 1;         
 3043740:	00800044 	movi	r2,1
 3043744:	e0bfff15 	stw	r2,-4(fp)
 3043748:	00007806 	br	304392c <SD_card_init+0x490>
    RCA[0]=response_buffer[1];
 304374c:	0080c174 	movhi	r2,773
 3043750:	10b9cc04 	addi	r2,r2,-6352
 3043754:	10800043 	ldbu	r2,1(r2)
 3043758:	d0a66ec5 	stb	r2,-26181(gp)
    RCA[1]=response_buffer[2];
 304375c:	0080c174 	movhi	r2,773
 3043760:	10b9cc04 	addi	r2,r2,-6352
 3043764:	10c00083 	ldbu	r3,2(r2)
 3043768:	0080c174 	movhi	r2,773
 304376c:	10b9c404 	addi	r2,r2,-6384
 3043770:	10c00005 	stb	r3,0(r2)
    Ncc();
 3043774:	30434440 	call	3043444 <Ncc>
    for(x=0;x<5;x++)
 3043778:	e03ffe45 	stb	zero,-7(fp)
 304377c:	00000b06 	br	30437ac <SD_card_init+0x310>
    cmd_buffer[x]=cmd9[x];
 3043780:	e13ffe43 	ldbu	r4,-7(fp)
 3043784:	e0fffe43 	ldbu	r3,-7(fp)
 3043788:	d0a00644 	addi	r2,gp,-32743
 304378c:	1885883a 	add	r2,r3,r2
 3043790:	10c00003 	ldbu	r3,0(r2)
 3043794:	d0a66d04 	addi	r2,gp,-26188
 3043798:	2085883a 	add	r2,r4,r2
 304379c:	10c00005 	stb	r3,0(r2)
    if(response_R(6)>1)
    return 1;         
    RCA[0]=response_buffer[1];
    RCA[1]=response_buffer[2];
    Ncc();
    for(x=0;x<5;x++)
 30437a0:	e0bffe43 	ldbu	r2,-7(fp)
 30437a4:	10800044 	addi	r2,r2,1
 30437a8:	e0bffe45 	stb	r2,-7(fp)
 30437ac:	e0bffe43 	ldbu	r2,-7(fp)
 30437b0:	10800170 	cmpltui	r2,r2,5
 30437b4:	103ff21e 	bne	r2,zero,3043780 <SD_card_init+0x2e4>
    cmd_buffer[x]=cmd9[x];
    cmd_buffer[1] = RCA[0];
 30437b8:	d0e66ec3 	ldbu	r3,-26181(gp)
 30437bc:	0080c174 	movhi	r2,773
 30437c0:	10b9c244 	addi	r2,r2,-6391
 30437c4:	10c00005 	stb	r3,0(r2)
    cmd_buffer[2] = RCA[1];  
 30437c8:	0080c174 	movhi	r2,773
 30437cc:	10b9c404 	addi	r2,r2,-6384
 30437d0:	10c00003 	ldbu	r3,0(r2)
 30437d4:	0080c174 	movhi	r2,773
 30437d8:	10b9c284 	addi	r2,r2,-6390
 30437dc:	10c00005 	stb	r3,0(r2)
    y = send_cmd(cmd_buffer);
 30437e0:	d1266d04 	addi	r4,gp,-26188
 30437e4:	3043db80 	call	3043db8 <send_cmd>
 30437e8:	e0bffe05 	stb	r2,-8(fp)
    Ncr();
 30437ec:	30433e40 	call	30433e4 <Ncr>
    if(response_R(2)>1)
 30437f0:	01000084 	movi	r4,2
 30437f4:	3043b3c0 	call	3043b3c <response_R>
 30437f8:	10803fcc 	andi	r2,r2,255
 30437fc:	108000b0 	cmpltui	r2,r2,2
 3043800:	1000031e 	bne	r2,zero,3043810 <SD_card_init+0x374>
    return 1; 
 3043804:	00800044 	movi	r2,1
 3043808:	e0bfff15 	stw	r2,-4(fp)
 304380c:	00004706 	br	304392c <SD_card_init+0x490>
    Ncc();
 3043810:	30434440 	call	3043444 <Ncc>
    for(x=0;x<5;x++)
 3043814:	e03ffe45 	stb	zero,-7(fp)
 3043818:	00000b06 	br	3043848 <SD_card_init+0x3ac>
    cmd_buffer[x]=cmd7[x];
 304381c:	e13ffe43 	ldbu	r4,-7(fp)
 3043820:	e0fffe43 	ldbu	r3,-7(fp)
 3043824:	d0a00504 	addi	r2,gp,-32748
 3043828:	1885883a 	add	r2,r3,r2
 304382c:	10c00003 	ldbu	r3,0(r2)
 3043830:	d0a66d04 	addi	r2,gp,-26188
 3043834:	2085883a 	add	r2,r4,r2
 3043838:	10c00005 	stb	r3,0(r2)
    y = send_cmd(cmd_buffer);
    Ncr();
    if(response_R(2)>1)
    return 1; 
    Ncc();
    for(x=0;x<5;x++)
 304383c:	e0bffe43 	ldbu	r2,-7(fp)
 3043840:	10800044 	addi	r2,r2,1
 3043844:	e0bffe45 	stb	r2,-7(fp)
 3043848:	e0bffe43 	ldbu	r2,-7(fp)
 304384c:	10800170 	cmpltui	r2,r2,5
 3043850:	103ff21e 	bne	r2,zero,304381c <SD_card_init+0x380>
    cmd_buffer[x]=cmd7[x];
    cmd_buffer[1] = RCA[0];
 3043854:	d0e66ec3 	ldbu	r3,-26181(gp)
 3043858:	0080c174 	movhi	r2,773
 304385c:	10b9c244 	addi	r2,r2,-6391
 3043860:	10c00005 	stb	r3,0(r2)
    cmd_buffer[2] = RCA[1];
 3043864:	0080c174 	movhi	r2,773
 3043868:	10b9c404 	addi	r2,r2,-6384
 304386c:	10c00003 	ldbu	r3,0(r2)
 3043870:	0080c174 	movhi	r2,773
 3043874:	10b9c284 	addi	r2,r2,-6390
 3043878:	10c00005 	stb	r3,0(r2)
    y = send_cmd(cmd_buffer);
 304387c:	d1266d04 	addi	r4,gp,-26188
 3043880:	3043db80 	call	3043db8 <send_cmd>
 3043884:	e0bffe05 	stb	r2,-8(fp)
    Ncr();
 3043888:	30433e40 	call	30433e4 <Ncr>
    if(response_R(1)>1)
 304388c:	01000044 	movi	r4,1
 3043890:	3043b3c0 	call	3043b3c <response_R>
 3043894:	10803fcc 	andi	r2,r2,255
 3043898:	108000b0 	cmpltui	r2,r2,2
 304389c:	1000031e 	bne	r2,zero,30438ac <SD_card_init+0x410>
    return 1; 
 30438a0:	00800044 	movi	r2,1
 30438a4:	e0bfff15 	stw	r2,-4(fp)
 30438a8:	00002006 	br	304392c <SD_card_init+0x490>
    Ncc();
 30438ac:	30434440 	call	3043444 <Ncc>
    for(x=0;x<5;x++)
 30438b0:	e03ffe45 	stb	zero,-7(fp)
 30438b4:	00000b06 	br	30438e4 <SD_card_init+0x448>
    cmd_buffer[x]=cmd16[x];
 30438b8:	e13ffe43 	ldbu	r4,-7(fp)
 30438bc:	e0fffe43 	ldbu	r3,-7(fp)
 30438c0:	d0a00784 	addi	r2,gp,-32738
 30438c4:	1885883a 	add	r2,r3,r2
 30438c8:	10c00003 	ldbu	r3,0(r2)
 30438cc:	d0a66d04 	addi	r2,gp,-26188
 30438d0:	2085883a 	add	r2,r4,r2
 30438d4:	10c00005 	stb	r3,0(r2)
    y = send_cmd(cmd_buffer);
    Ncr();
    if(response_R(1)>1)
    return 1; 
    Ncc();
    for(x=0;x<5;x++)
 30438d8:	e0bffe43 	ldbu	r2,-7(fp)
 30438dc:	10800044 	addi	r2,r2,1
 30438e0:	e0bffe45 	stb	r2,-7(fp)
 30438e4:	e0bffe43 	ldbu	r2,-7(fp)
 30438e8:	10800170 	cmpltui	r2,r2,5
 30438ec:	103ff21e 	bne	r2,zero,30438b8 <SD_card_init+0x41c>
    cmd_buffer[x]=cmd16[x];
    y = send_cmd(cmd_buffer);  
 30438f0:	d1266d04 	addi	r4,gp,-26188
 30438f4:	3043db80 	call	3043db8 <send_cmd>
 30438f8:	e0bffe05 	stb	r2,-8(fp)
    Ncr();
 30438fc:	30433e40 	call	30433e4 <Ncr>
    if(response_R(1)>1)
 3043900:	01000044 	movi	r4,1
 3043904:	3043b3c0 	call	3043b3c <response_R>
 3043908:	10803fcc 	andi	r2,r2,255
 304390c:	108000b0 	cmpltui	r2,r2,2
 3043910:	1000031e 	bne	r2,zero,3043920 <SD_card_init+0x484>
    return 1;   //not ready
 3043914:	00800044 	movi	r2,1
 3043918:	e0bfff15 	stw	r2,-4(fp)
 304391c:	00000306 	br	304392c <SD_card_init+0x490>
    read_status =1; //sd card ready
 3043920:	00800044 	movi	r2,1
 3043924:	d0a66e45 	stb	r2,-26183(gp)
    return 0;
 3043928:	e03fff15 	stw	zero,-4(fp)
 304392c:	e0bfff17 	ldw	r2,-4(fp)
}
 3043930:	e037883a 	mov	sp,fp
 3043934:	dfc00117 	ldw	ra,4(sp)
 3043938:	df000017 	ldw	fp,0(sp)
 304393c:	dec00204 	addi	sp,sp,8
 3043940:	f800283a 	ret

03043944 <SD_read_lba>:
//-------------------------------------------------------------------------
BYTE SD_read_lba(BYTE *buff,UINT32 lba,UINT32 seccnt)
{
 3043944:	defff704 	addi	sp,sp,-36
 3043948:	dfc00815 	stw	ra,32(sp)
 304394c:	df000715 	stw	fp,28(sp)
 3043950:	df000704 	addi	fp,sp,28
 3043954:	e13ffd15 	stw	r4,-12(fp)
 3043958:	e17ffe15 	stw	r5,-8(fp)
 304395c:	e1bfff15 	stw	r6,-4(fp)
  BYTE c=0;
 3043960:	e03ffc05 	stb	zero,-16(fp)
  UINT32  i,j;
  //lba+=101;
  for(j=0;j<seccnt;j++)
 3043964:	e03ffa15 	stw	zero,-24(fp)
 3043968:	00006906 	br	3043b10 <SD_read_lba+0x1cc>
  {
    {
      Ncc();
 304396c:	30434440 	call	3043444 <Ncc>
      cmd_buffer[0] = cmd17[0];
 3043970:	d0a008c3 	ldbu	r2,-32733(gp)
 3043974:	d0a66d05 	stb	r2,-26188(gp)
      cmd_buffer[1] = (lba>>15)&0xff;
 3043978:	e0bffe17 	ldw	r2,-8(fp)
 304397c:	1004d3fa 	srli	r2,r2,15
 3043980:	1007883a 	mov	r3,r2
 3043984:	0080c174 	movhi	r2,773
 3043988:	10b9c244 	addi	r2,r2,-6391
 304398c:	10c00005 	stb	r3,0(r2)
      cmd_buffer[2] = (lba>>7)&0xff;
 3043990:	e0bffe17 	ldw	r2,-8(fp)
 3043994:	1004d1fa 	srli	r2,r2,7
 3043998:	1007883a 	mov	r3,r2
 304399c:	0080c174 	movhi	r2,773
 30439a0:	10b9c284 	addi	r2,r2,-6390
 30439a4:	10c00005 	stb	r3,0(r2)
      cmd_buffer[3] = (lba<<1)&0xff;
 30439a8:	e0bffe17 	ldw	r2,-8(fp)
 30439ac:	1085883a 	add	r2,r2,r2
 30439b0:	1007883a 	mov	r3,r2
 30439b4:	0080c174 	movhi	r2,773
 30439b8:	10b9c2c4 	addi	r2,r2,-6389
 30439bc:	10c00005 	stb	r3,0(r2)
      cmd_buffer[4] = 0;
 30439c0:	0080c174 	movhi	r2,773
 30439c4:	10b9c304 	addi	r2,r2,-6388
 30439c8:	10000005 	stb	zero,0(r2)
      lba++;
 30439cc:	e0bffe17 	ldw	r2,-8(fp)
 30439d0:	10800044 	addi	r2,r2,1
 30439d4:	e0bffe15 	stw	r2,-8(fp)
      send_cmd(cmd_buffer); 
 30439d8:	d1266d04 	addi	r4,gp,-26188
 30439dc:	3043db80 	call	3043db8 <send_cmd>
      Ncr();
 30439e0:	30433e40 	call	30433e4 <Ncr>

    } //LCD_Show_Text("ee");
    while(1)
    {
      SD_CLK_LOW;
 30439e4:	00804034 	movhi	r2,256
 30439e8:	10804004 	addi	r2,r2,256
 30439ec:	10000035 	stwio	zero,0(r2)
      SD_CLK_HIGH;
 30439f0:	00c04034 	movhi	r3,256
 30439f4:	18c04004 	addi	r3,r3,256
 30439f8:	00800044 	movi	r2,1
 30439fc:	18800035 	stwio	r2,0(r3)
      IOWR(SD_DAT_BASE, 0, 1);
 3043a00:	00c04034 	movhi	r3,256
 3043a04:	18c04404 	addi	r3,r3,272
 3043a08:	00800044 	movi	r2,1
 3043a0c:	18800035 	stwio	r2,0(r3)

      if((IORD(SD_DAT_BASE, 0)))
 3043a10:	00804034 	movhi	r2,256
 3043a14:	10804404 	addi	r2,r2,272
 3043a18:	10800037 	ldwio	r2,0(r2)
 3043a1c:	1004c03a 	cmpne	r2,r2,zero
 3043a20:	1000011e 	bne	r2,zero,3043a28 <SD_read_lba+0xe4>
      break;
    }
 3043a24:	003fef06 	br	30439e4 <SD_read_lba+0xa0>
    for(i=0;i<512;i++)
 3043a28:	e03ffb15 	stw	zero,-20(fp)
 3043a2c:	00002306 	br	3043abc <SD_read_lba+0x178>
    {
      BYTE j;
      for(j=0;j<8;j++)
 3043a30:	e03ff905 	stb	zero,-28(fp)
 3043a34:	00001506 	br	3043a8c <SD_read_lba+0x148>
      {
        SD_CLK_LOW;
 3043a38:	00804034 	movhi	r2,256
 3043a3c:	10804004 	addi	r2,r2,256
 3043a40:	10000035 	stwio	zero,0(r2)
        SD_CLK_HIGH;
 3043a44:	00c04034 	movhi	r3,256
 3043a48:	18c04004 	addi	r3,r3,256
 3043a4c:	00800044 	movi	r2,1
 3043a50:	18800035 	stwio	r2,0(r3)
        c <<= 1; 
 3043a54:	e0bffc03 	ldbu	r2,-16(fp)
 3043a58:	1085883a 	add	r2,r2,r2
 3043a5c:	e0bffc05 	stb	r2,-16(fp)
        if(SD_TEST_DAT)
 3043a60:	00804034 	movhi	r2,256
 3043a64:	10804404 	addi	r2,r2,272
 3043a68:	10800037 	ldwio	r2,0(r2)
 3043a6c:	1005003a 	cmpeq	r2,r2,zero
 3043a70:	1000031e 	bne	r2,zero,3043a80 <SD_read_lba+0x13c>
        c |= 0x01;
 3043a74:	e0bffc03 	ldbu	r2,-16(fp)
 3043a78:	10800054 	ori	r2,r2,1
 3043a7c:	e0bffc05 	stb	r2,-16(fp)
      break;
    }
    for(i=0;i<512;i++)
    {
      BYTE j;
      for(j=0;j<8;j++)
 3043a80:	e0bff903 	ldbu	r2,-28(fp)
 3043a84:	10800044 	addi	r2,r2,1
 3043a88:	e0bff905 	stb	r2,-28(fp)
 3043a8c:	e0bff903 	ldbu	r2,-28(fp)
 3043a90:	10800230 	cmpltui	r2,r2,8
 3043a94:	103fe81e 	bne	r2,zero,3043a38 <SD_read_lba+0xf4>
        SD_CLK_HIGH;
        c <<= 1; 
        if(SD_TEST_DAT)
        c |= 0x01;
      } 
      *buff=c;
 3043a98:	e0fffd17 	ldw	r3,-12(fp)
 3043a9c:	e0bffc03 	ldbu	r2,-16(fp)
 3043aa0:	18800005 	stb	r2,0(r3)
      buff++;
 3043aa4:	e0bffd17 	ldw	r2,-12(fp)
 3043aa8:	10800044 	addi	r2,r2,1
 3043aac:	e0bffd15 	stw	r2,-12(fp)
      IOWR(SD_DAT_BASE, 0, 1);

      if((IORD(SD_DAT_BASE, 0)))
      break;
    }
    for(i=0;i<512;i++)
 3043ab0:	e0bffb17 	ldw	r2,-20(fp)
 3043ab4:	10800044 	addi	r2,r2,1
 3043ab8:	e0bffb15 	stw	r2,-20(fp)
 3043abc:	e0bffb17 	ldw	r2,-20(fp)
 3043ac0:	10808030 	cmpltui	r2,r2,512
 3043ac4:	103fda1e 	bne	r2,zero,3043a30 <SD_read_lba+0xec>
        c |= 0x01;
      } 
      *buff=c;
      buff++;
    } 
    for(i=0; i<16; i++)
 3043ac8:	e03ffb15 	stw	zero,-20(fp)
 3043acc:	00000a06 	br	3043af8 <SD_read_lba+0x1b4>
    {
        SD_CLK_LOW;
 3043ad0:	00804034 	movhi	r2,256
 3043ad4:	10804004 	addi	r2,r2,256
 3043ad8:	10000035 	stwio	zero,0(r2)
        SD_CLK_HIGH;
 3043adc:	00c04034 	movhi	r3,256
 3043ae0:	18c04004 	addi	r3,r3,256
 3043ae4:	00800044 	movi	r2,1
 3043ae8:	18800035 	stwio	r2,0(r3)
        c |= 0x01;
      } 
      *buff=c;
      buff++;
    } 
    for(i=0; i<16; i++)
 3043aec:	e0bffb17 	ldw	r2,-20(fp)
 3043af0:	10800044 	addi	r2,r2,1
 3043af4:	e0bffb15 	stw	r2,-20(fp)
 3043af8:	e0bffb17 	ldw	r2,-20(fp)
 3043afc:	10800430 	cmpltui	r2,r2,16
 3043b00:	103ff31e 	bne	r2,zero,3043ad0 <SD_read_lba+0x18c>
BYTE SD_read_lba(BYTE *buff,UINT32 lba,UINT32 seccnt)
{
  BYTE c=0;
  UINT32  i,j;
  //lba+=101;
  for(j=0;j<seccnt;j++)
 3043b04:	e0bffa17 	ldw	r2,-24(fp)
 3043b08:	10800044 	addi	r2,r2,1
 3043b0c:	e0bffa15 	stw	r2,-24(fp)
 3043b10:	e0fffa17 	ldw	r3,-24(fp)
 3043b14:	e0bfff17 	ldw	r2,-4(fp)
 3043b18:	18bf9436 	bltu	r3,r2,304396c <SD_read_lba+0x28>
    {
        SD_CLK_LOW;
        SD_CLK_HIGH;
    }
  }
  read_status = 1;  //SD data next in
 3043b1c:	00800044 	movi	r2,1
 3043b20:	d0a66e45 	stb	r2,-26183(gp)
  return 0;
 3043b24:	0005883a 	mov	r2,zero

}
 3043b28:	e037883a 	mov	sp,fp
 3043b2c:	dfc00117 	ldw	ra,4(sp)
 3043b30:	df000017 	ldw	fp,0(sp)
 3043b34:	dec00204 	addi	sp,sp,8
 3043b38:	f800283a 	ret

03043b3c <response_R>:
//-------------------------------------------------------------------------
BYTE response_R(BYTE s)
{
 3043b3c:	defffb04 	addi	sp,sp,-20
 3043b40:	df000415 	stw	fp,16(sp)
 3043b44:	df000404 	addi	fp,sp,16
 3043b48:	e13ffe05 	stb	r4,-8(fp)
  BYTE a=0,b=0,c=0,r=0,crc=0;
 3043b4c:	e03ffdc5 	stb	zero,-9(fp)
 3043b50:	e03ffd85 	stb	zero,-10(fp)
 3043b54:	e03ffd45 	stb	zero,-11(fp)
 3043b58:	e03ffd05 	stb	zero,-12(fp)
 3043b5c:	e03ffcc5 	stb	zero,-13(fp)
  BYTE i,j=6,k;
 3043b60:	00800184 	movi	r2,6
 3043b64:	e0bffc45 	stb	r2,-15(fp)
  while(1)
  {
    SD_CLK_LOW;
 3043b68:	00804034 	movhi	r2,256
 3043b6c:	10804004 	addi	r2,r2,256
 3043b70:	10000035 	stwio	zero,0(r2)
    SD_CLK_HIGH;
 3043b74:	00c04034 	movhi	r3,256
 3043b78:	18c04004 	addi	r3,r3,256
 3043b7c:	00800044 	movi	r2,1
 3043b80:	18800035 	stwio	r2,0(r3)
    if(!(SD_TEST_CMD))
 3043b84:	00804034 	movhi	r2,256
 3043b88:	10803c04 	addi	r2,r2,240
 3043b8c:	10800037 	ldwio	r2,0(r2)
 3043b90:	1005003a 	cmpeq	r2,r2,zero
 3043b94:	10000c1e 	bne	r2,zero,3043bc8 <response_R+0x8c>
    break;
    if(crc++ >100)
 3043b98:	e0bffcc3 	ldbu	r2,-13(fp)
 3043b9c:	10801968 	cmpgeui	r2,r2,101
 3043ba0:	1007883a 	mov	r3,r2
 3043ba4:	e0bffcc3 	ldbu	r2,-13(fp)
 3043ba8:	10800044 	addi	r2,r2,1
 3043bac:	e0bffcc5 	stb	r2,-13(fp)
 3043bb0:	18803fcc 	andi	r2,r3,255
 3043bb4:	1005003a 	cmpeq	r2,r2,zero
 3043bb8:	103feb1e 	bne	r2,zero,3043b68 <response_R+0x2c>
    return 2;
 3043bbc:	00800084 	movi	r2,2
 3043bc0:	e0bfff15 	stw	r2,-4(fp)
 3043bc4:	00007706 	br	3043da4 <response_R+0x268>
  } 
  crc =0;
 3043bc8:	e03ffcc5 	stb	zero,-13(fp)
  if(s == 2)
 3043bcc:	e0bffe03 	ldbu	r2,-8(fp)
 3043bd0:	10800098 	cmpnei	r2,r2,2
 3043bd4:	1000021e 	bne	r2,zero,3043be0 <response_R+0xa4>
  j = 17;
 3043bd8:	00800444 	movi	r2,17
 3043bdc:	e0bffc45 	stb	r2,-15(fp)

  for(k=0; k<j; k++)
 3043be0:	e03ffc05 	stb	zero,-16(fp)
 3043be4:	00005d06 	br	3043d5c <response_R+0x220>
  {
    c = 0;
 3043be8:	e03ffd45 	stb	zero,-11(fp)
    if(k > 0)                      //for crc culcar
 3043bec:	e0bffc03 	ldbu	r2,-16(fp)
 3043bf0:	1005003a 	cmpeq	r2,r2,zero
 3043bf4:	1000071e 	bne	r2,zero,3043c14 <response_R+0xd8>
    b = response_buffer[k-1];    
 3043bf8:	e0bffc03 	ldbu	r2,-16(fp)
 3043bfc:	10ffffc4 	addi	r3,r2,-1
 3043c00:	0080c174 	movhi	r2,773
 3043c04:	10b9cc04 	addi	r2,r2,-6352
 3043c08:	10c5883a 	add	r2,r2,r3
 3043c0c:	10800003 	ldbu	r2,0(r2)
 3043c10:	e0bffd85 	stb	r2,-10(fp)
    for(i=0; i<8; i++)
 3043c14:	e03ffc85 	stb	zero,-14(fp)
 3043c18:	00003606 	br	3043cf4 <response_R+0x1b8>
    {
      SD_CLK_LOW;
 3043c1c:	00804034 	movhi	r2,256
 3043c20:	10804004 	addi	r2,r2,256
 3043c24:	10000035 	stwio	zero,0(r2)
      if(a > 0)
 3043c28:	e0bffdc3 	ldbu	r2,-9(fp)
 3043c2c:	1005003a 	cmpeq	r2,r2,zero
 3043c30:	1000041e 	bne	r2,zero,3043c44 <response_R+0x108>
      c <<= 1; 
 3043c34:	e0bffd43 	ldbu	r2,-11(fp)
 3043c38:	1085883a 	add	r2,r2,r2
 3043c3c:	e0bffd45 	stb	r2,-11(fp)
 3043c40:	00000306 	br	3043c50 <response_R+0x114>
      else
      i++; 
 3043c44:	e0bffc83 	ldbu	r2,-14(fp)
 3043c48:	10800044 	addi	r2,r2,1
 3043c4c:	e0bffc85 	stb	r2,-14(fp)
      a++; 
 3043c50:	e0bffdc3 	ldbu	r2,-9(fp)
 3043c54:	10800044 	addi	r2,r2,1
 3043c58:	e0bffdc5 	stb	r2,-9(fp)
      SD_CLK_HIGH;
 3043c5c:	00c04034 	movhi	r3,256
 3043c60:	18c04004 	addi	r3,r3,256
 3043c64:	00800044 	movi	r2,1
 3043c68:	18800035 	stwio	r2,0(r3)
      if(SD_TEST_CMD)
 3043c6c:	00804034 	movhi	r2,256
 3043c70:	10803c04 	addi	r2,r2,240
 3043c74:	10800037 	ldwio	r2,0(r2)
 3043c78:	1005003a 	cmpeq	r2,r2,zero
 3043c7c:	1000031e 	bne	r2,zero,3043c8c <response_R+0x150>
      c |= 0x01;
 3043c80:	e0bffd43 	ldbu	r2,-11(fp)
 3043c84:	10800054 	ori	r2,r2,1
 3043c88:	e0bffd45 	stb	r2,-11(fp)
      if(k > 0)
 3043c8c:	e0bffc03 	ldbu	r2,-16(fp)
 3043c90:	1005003a 	cmpeq	r2,r2,zero
 3043c94:	1000141e 	bne	r2,zero,3043ce8 <response_R+0x1ac>
      {
        crc <<= 1;
 3043c98:	e0bffcc3 	ldbu	r2,-13(fp)
 3043c9c:	1085883a 	add	r2,r2,r2
 3043ca0:	e0bffcc5 	stb	r2,-13(fp)
        if((crc ^ b) & 0x80)
 3043ca4:	e0fffcc3 	ldbu	r3,-13(fp)
 3043ca8:	e0bffd83 	ldbu	r2,-10(fp)
 3043cac:	1884f03a 	xor	r2,r3,r2
 3043cb0:	10803fcc 	andi	r2,r2,255
 3043cb4:	1080201c 	xori	r2,r2,128
 3043cb8:	10bfe004 	addi	r2,r2,-128
 3043cbc:	1004403a 	cmpge	r2,r2,zero
 3043cc0:	1000031e 	bne	r2,zero,3043cd0 <response_R+0x194>
        crc ^= 0x09;
 3043cc4:	e0bffcc3 	ldbu	r2,-13(fp)
 3043cc8:	1080025c 	xori	r2,r2,9
 3043ccc:	e0bffcc5 	stb	r2,-13(fp)
        b <<= 1;
 3043cd0:	e0bffd83 	ldbu	r2,-10(fp)
 3043cd4:	1085883a 	add	r2,r2,r2
 3043cd8:	e0bffd85 	stb	r2,-10(fp)
        crc &= 0x7f;
 3043cdc:	e0bffcc3 	ldbu	r2,-13(fp)
 3043ce0:	10801fcc 	andi	r2,r2,127
 3043ce4:	e0bffcc5 	stb	r2,-13(fp)
  for(k=0; k<j; k++)
  {
    c = 0;
    if(k > 0)                      //for crc culcar
    b = response_buffer[k-1];    
    for(i=0; i<8; i++)
 3043ce8:	e0bffc83 	ldbu	r2,-14(fp)
 3043cec:	10800044 	addi	r2,r2,1
 3043cf0:	e0bffc85 	stb	r2,-14(fp)
 3043cf4:	e0bffc83 	ldbu	r2,-14(fp)
 3043cf8:	10800230 	cmpltui	r2,r2,8
 3043cfc:	103fc71e 	bne	r2,zero,3043c1c <response_R+0xe0>
        crc ^= 0x09;
        b <<= 1;
        crc &= 0x7f;
      }
    }
    if(s==3)
 3043d00:	e0bffe03 	ldbu	r2,-8(fp)
 3043d04:	108000d8 	cmpnei	r2,r2,3
 3043d08:	10000b1e 	bne	r2,zero,3043d38 <response_R+0x1fc>
    { 
      if( k==1 &&(!(c&0x80)))
 3043d0c:	e0bffc03 	ldbu	r2,-16(fp)
 3043d10:	10800058 	cmpnei	r2,r2,1
 3043d14:	1000081e 	bne	r2,zero,3043d38 <response_R+0x1fc>
 3043d18:	e0bffd43 	ldbu	r2,-11(fp)
 3043d1c:	10803fcc 	andi	r2,r2,255
 3043d20:	1080201c 	xori	r2,r2,128
 3043d24:	10bfe004 	addi	r2,r2,-128
 3043d28:	1004803a 	cmplt	r2,r2,zero
 3043d2c:	1000021e 	bne	r2,zero,3043d38 <response_R+0x1fc>
      r=1;
 3043d30:	00800044 	movi	r2,1
 3043d34:	e0bffd05 	stb	r2,-12(fp)
    }
    response_buffer[k] = c;
 3043d38:	e0fffc03 	ldbu	r3,-16(fp)
 3043d3c:	0080c174 	movhi	r2,773
 3043d40:	10b9cc04 	addi	r2,r2,-6352
 3043d44:	10c7883a 	add	r3,r2,r3
 3043d48:	e0bffd43 	ldbu	r2,-11(fp)
 3043d4c:	18800005 	stb	r2,0(r3)
  } 
  crc =0;
  if(s == 2)
  j = 17;

  for(k=0; k<j; k++)
 3043d50:	e0bffc03 	ldbu	r2,-16(fp)
 3043d54:	10800044 	addi	r2,r2,1
 3043d58:	e0bffc05 	stb	r2,-16(fp)
 3043d5c:	e0fffc03 	ldbu	r3,-16(fp)
 3043d60:	e0bffc43 	ldbu	r2,-15(fp)
 3043d64:	18bfa036 	bltu	r3,r2,3043be8 <response_R+0xac>
      if( k==1 &&(!(c&0x80)))
      r=1;
    }
    response_buffer[k] = c;
  }
  if(s==1 || s==6)
 3043d68:	e0bffe03 	ldbu	r2,-8(fp)
 3043d6c:	10800060 	cmpeqi	r2,r2,1
 3043d70:	1000031e 	bne	r2,zero,3043d80 <response_R+0x244>
 3043d74:	e0bffe03 	ldbu	r2,-8(fp)
 3043d78:	10800198 	cmpnei	r2,r2,6
 3043d7c:	1000071e 	bne	r2,zero,3043d9c <response_R+0x260>
  {
    if(c != ((crc<<1)+1))
 3043d80:	e0fffd43 	ldbu	r3,-11(fp)
 3043d84:	e0bffcc3 	ldbu	r2,-13(fp)
 3043d88:	1085883a 	add	r2,r2,r2
 3043d8c:	10800044 	addi	r2,r2,1
 3043d90:	18800226 	beq	r3,r2,3043d9c <response_R+0x260>
    r=2;
 3043d94:	00800084 	movi	r2,2
 3043d98:	e0bffd05 	stb	r2,-12(fp)
  } 
  return r; 
 3043d9c:	e0bffd03 	ldbu	r2,-12(fp)
 3043da0:	e0bfff15 	stw	r2,-4(fp)
 3043da4:	e0bfff17 	ldw	r2,-4(fp)
}
 3043da8:	e037883a 	mov	sp,fp
 3043dac:	df000017 	ldw	fp,0(sp)
 3043db0:	dec00104 	addi	sp,sp,4
 3043db4:	f800283a 	ret

03043db8 <send_cmd>:
//-------------------------------------------------------------------------
BYTE send_cmd(BYTE *in)
{
 3043db8:	defffb04 	addi	sp,sp,-20
 3043dbc:	df000415 	stw	fp,16(sp)
 3043dc0:	df000404 	addi	fp,sp,16
 3043dc4:	e13fff15 	stw	r4,-4(fp)
  int i,j;
  BYTE b,crc=0;
 3043dc8:	e03ffc05 	stb	zero,-16(fp)
  SD_CMD_OUT;
 3043dcc:	00c04034 	movhi	r3,256
 3043dd0:	18c03d04 	addi	r3,r3,244
 3043dd4:	00800044 	movi	r2,1
 3043dd8:	18800035 	stwio	r2,0(r3)
  for(i=0; i < 5; i++)
 3043ddc:	e03ffe15 	stw	zero,-8(fp)
 3043de0:	00003a06 	br	3043ecc <send_cmd+0x114>
  {
    b = in[i];
 3043de4:	e0bffe17 	ldw	r2,-8(fp)
 3043de8:	1007883a 	mov	r3,r2
 3043dec:	e0bfff17 	ldw	r2,-4(fp)
 3043df0:	1885883a 	add	r2,r3,r2
 3043df4:	10800003 	ldbu	r2,0(r2)
 3043df8:	e0bffc45 	stb	r2,-15(fp)
    for(j=0; j<8; j++)
 3043dfc:	e03ffd15 	stw	zero,-12(fp)
 3043e00:	00002906 	br	3043ea8 <send_cmd+0xf0>
    {
      SD_CLK_LOW;
 3043e04:	00804034 	movhi	r2,256
 3043e08:	10804004 	addi	r2,r2,256
 3043e0c:	10000035 	stwio	zero,0(r2)
      if(b&0x80)
 3043e10:	e0bffc43 	ldbu	r2,-15(fp)
 3043e14:	10803fcc 	andi	r2,r2,255
 3043e18:	1080201c 	xori	r2,r2,128
 3043e1c:	10bfe004 	addi	r2,r2,-128
 3043e20:	1004403a 	cmpge	r2,r2,zero
 3043e24:	1000051e 	bne	r2,zero,3043e3c <send_cmd+0x84>
      SD_CMD_HIGH;
 3043e28:	00c04034 	movhi	r3,256
 3043e2c:	18c03c04 	addi	r3,r3,240
 3043e30:	00800044 	movi	r2,1
 3043e34:	18800035 	stwio	r2,0(r3)
 3043e38:	00000306 	br	3043e48 <send_cmd+0x90>
      else
      SD_CMD_LOW; 
 3043e3c:	00804034 	movhi	r2,256
 3043e40:	10803c04 	addi	r2,r2,240
 3043e44:	10000035 	stwio	zero,0(r2)
      crc <<= 1;
 3043e48:	e0bffc03 	ldbu	r2,-16(fp)
 3043e4c:	1085883a 	add	r2,r2,r2
 3043e50:	e0bffc05 	stb	r2,-16(fp)
      SD_CLK_HIGH;
 3043e54:	00c04034 	movhi	r3,256
 3043e58:	18c04004 	addi	r3,r3,256
 3043e5c:	00800044 	movi	r2,1
 3043e60:	18800035 	stwio	r2,0(r3)
      if((crc ^ b) & 0x80)
 3043e64:	e0fffc03 	ldbu	r3,-16(fp)
 3043e68:	e0bffc43 	ldbu	r2,-15(fp)
 3043e6c:	1884f03a 	xor	r2,r3,r2
 3043e70:	10803fcc 	andi	r2,r2,255
 3043e74:	1080201c 	xori	r2,r2,128
 3043e78:	10bfe004 	addi	r2,r2,-128
 3043e7c:	1004403a 	cmpge	r2,r2,zero
 3043e80:	1000031e 	bne	r2,zero,3043e90 <send_cmd+0xd8>
      crc ^= 0x09;
 3043e84:	e0bffc03 	ldbu	r2,-16(fp)
 3043e88:	1080025c 	xori	r2,r2,9
 3043e8c:	e0bffc05 	stb	r2,-16(fp)
      b<<=1;
 3043e90:	e0bffc43 	ldbu	r2,-15(fp)
 3043e94:	1085883a 	add	r2,r2,r2
 3043e98:	e0bffc45 	stb	r2,-15(fp)
  BYTE b,crc=0;
  SD_CMD_OUT;
  for(i=0; i < 5; i++)
  {
    b = in[i];
    for(j=0; j<8; j++)
 3043e9c:	e0bffd17 	ldw	r2,-12(fp)
 3043ea0:	10800044 	addi	r2,r2,1
 3043ea4:	e0bffd15 	stw	r2,-12(fp)
 3043ea8:	e0bffd17 	ldw	r2,-12(fp)
 3043eac:	10800210 	cmplti	r2,r2,8
 3043eb0:	103fd41e 	bne	r2,zero,3043e04 <send_cmd+0x4c>
      SD_CLK_HIGH;
      if((crc ^ b) & 0x80)
      crc ^= 0x09;
      b<<=1;
    } 
    crc &= 0x7f; 
 3043eb4:	e0bffc03 	ldbu	r2,-16(fp)
 3043eb8:	10801fcc 	andi	r2,r2,127
 3043ebc:	e0bffc05 	stb	r2,-16(fp)
BYTE send_cmd(BYTE *in)
{
  int i,j;
  BYTE b,crc=0;
  SD_CMD_OUT;
  for(i=0; i < 5; i++)
 3043ec0:	e0bffe17 	ldw	r2,-8(fp)
 3043ec4:	10800044 	addi	r2,r2,1
 3043ec8:	e0bffe15 	stw	r2,-8(fp)
 3043ecc:	e0bffe17 	ldw	r2,-8(fp)
 3043ed0:	10800150 	cmplti	r2,r2,5
 3043ed4:	103fc31e 	bne	r2,zero,3043de4 <send_cmd+0x2c>
      crc ^= 0x09;
      b<<=1;
    } 
    crc &= 0x7f; 
  }  
  crc =((crc<<1)|0x01);
 3043ed8:	e0bffc03 	ldbu	r2,-16(fp)
 3043edc:	1085883a 	add	r2,r2,r2
 3043ee0:	10800054 	ori	r2,r2,1
 3043ee4:	e0bffc05 	stb	r2,-16(fp)
  b = crc; 
 3043ee8:	e0bffc03 	ldbu	r2,-16(fp)
 3043eec:	e0bffc45 	stb	r2,-15(fp)
  for(j=0; j<8; j++)
 3043ef0:	e03ffd15 	stw	zero,-12(fp)
 3043ef4:	00001b06 	br	3043f64 <send_cmd+0x1ac>
  {
    SD_CLK_LOW;
 3043ef8:	00804034 	movhi	r2,256
 3043efc:	10804004 	addi	r2,r2,256
 3043f00:	10000035 	stwio	zero,0(r2)
    if(crc&0x80)
 3043f04:	e0bffc03 	ldbu	r2,-16(fp)
 3043f08:	10803fcc 	andi	r2,r2,255
 3043f0c:	1080201c 	xori	r2,r2,128
 3043f10:	10bfe004 	addi	r2,r2,-128
 3043f14:	1004403a 	cmpge	r2,r2,zero
 3043f18:	1000051e 	bne	r2,zero,3043f30 <send_cmd+0x178>
    SD_CMD_HIGH;
 3043f1c:	00c04034 	movhi	r3,256
 3043f20:	18c03c04 	addi	r3,r3,240
 3043f24:	00800044 	movi	r2,1
 3043f28:	18800035 	stwio	r2,0(r3)
 3043f2c:	00000306 	br	3043f3c <send_cmd+0x184>
    else
    SD_CMD_LOW; 
 3043f30:	00804034 	movhi	r2,256
 3043f34:	10803c04 	addi	r2,r2,240
 3043f38:	10000035 	stwio	zero,0(r2)
    SD_CLK_HIGH;
 3043f3c:	00c04034 	movhi	r3,256
 3043f40:	18c04004 	addi	r3,r3,256
 3043f44:	00800044 	movi	r2,1
 3043f48:	18800035 	stwio	r2,0(r3)
    crc<<=1;
 3043f4c:	e0bffc03 	ldbu	r2,-16(fp)
 3043f50:	1085883a 	add	r2,r2,r2
 3043f54:	e0bffc05 	stb	r2,-16(fp)
    } 
    crc &= 0x7f; 
  }  
  crc =((crc<<1)|0x01);
  b = crc; 
  for(j=0; j<8; j++)
 3043f58:	e0bffd17 	ldw	r2,-12(fp)
 3043f5c:	10800044 	addi	r2,r2,1
 3043f60:	e0bffd15 	stw	r2,-12(fp)
 3043f64:	e0bffd17 	ldw	r2,-12(fp)
 3043f68:	10800210 	cmplti	r2,r2,8
 3043f6c:	103fe21e 	bne	r2,zero,3043ef8 <send_cmd+0x140>
    else
    SD_CMD_LOW; 
    SD_CLK_HIGH;
    crc<<=1;
  }    
  return b;   
 3043f70:	e0bffc43 	ldbu	r2,-15(fp)
}
 3043f74:	e037883a 	mov	sp,fp
 3043f78:	df000017 	ldw	fp,0(sp)
 3043f7c:	dec00104 	addi	sp,sp,4
 3043f80:	f800283a 	ret

03043f84 <SD_read_block>:

//-------------------------------------------------------------------------
BYTE SD_read_block(UINT32 block_number, BYTE *buff)
{
 3043f84:	defff804 	addi	sp,sp,-32
 3043f88:	dfc00715 	stw	ra,28(sp)
 3043f8c:	df000615 	stw	fp,24(sp)
 3043f90:	df000604 	addi	fp,sp,24
 3043f94:	e13ffe15 	stw	r4,-8(fp)
 3043f98:	e17fff15 	stw	r5,-4(fp)
    SD_CMD_OUT;
 3043f9c:	00c04034 	movhi	r3,256
 3043fa0:	18c03d04 	addi	r3,r3,244
 3043fa4:	00800044 	movi	r2,1
 3043fa8:	18800035 	stwio	r2,0(r3)
    SD_DAT_IN;/////IN   card to  host
 3043fac:	00804034 	movhi	r2,256
 3043fb0:	10804504 	addi	r2,r2,276
 3043fb4:	10000035 	stwio	zero,0(r2)
    BYTE c=0;
 3043fb8:	e03ffd05 	stb	zero,-12(fp)
    UINT32  i,lba;
    lba = block_number *512;
 3043fbc:	e0bffe17 	ldw	r2,-8(fp)
 3043fc0:	1004927a 	slli	r2,r2,9
 3043fc4:	e0bffb15 	stw	r2,-20(fp)
    {
      Ncc();
 3043fc8:	30434440 	call	3043444 <Ncc>
      cmd_buffer[0] = cmd17[0];
 3043fcc:	d0a008c3 	ldbu	r2,-32733(gp)
 3043fd0:	d0a66d05 	stb	r2,-26188(gp)
      cmd_buffer[1] = (lba>>24)&0xff;
 3043fd4:	e0bffb17 	ldw	r2,-20(fp)
 3043fd8:	1004d63a 	srli	r2,r2,24
 3043fdc:	1007883a 	mov	r3,r2
 3043fe0:	0080c174 	movhi	r2,773
 3043fe4:	10b9c244 	addi	r2,r2,-6391
 3043fe8:	10c00005 	stb	r3,0(r2)
      cmd_buffer[2] = (lba>>16)&0xff;
 3043fec:	e0bffb17 	ldw	r2,-20(fp)
 3043ff0:	1004d43a 	srli	r2,r2,16
 3043ff4:	1007883a 	mov	r3,r2
 3043ff8:	0080c174 	movhi	r2,773
 3043ffc:	10b9c284 	addi	r2,r2,-6390
 3044000:	10c00005 	stb	r3,0(r2)
      cmd_buffer[3] = (lba>>8)&0xff;
 3044004:	e0bffb17 	ldw	r2,-20(fp)
 3044008:	1004d23a 	srli	r2,r2,8
 304400c:	1007883a 	mov	r3,r2
 3044010:	0080c174 	movhi	r2,773
 3044014:	10b9c2c4 	addi	r2,r2,-6389
 3044018:	10c00005 	stb	r3,0(r2)
      cmd_buffer[4] = lba&0xff;
 304401c:	e0bffb17 	ldw	r2,-20(fp)
 3044020:	1007883a 	mov	r3,r2
 3044024:	0080c174 	movhi	r2,773
 3044028:	10b9c304 	addi	r2,r2,-6388
 304402c:	10c00005 	stb	r3,0(r2)
      send_cmd(cmd_buffer); 
 3044030:	d1266d04 	addi	r4,gp,-26188
 3044034:	3043db80 	call	3043db8 <send_cmd>
      Ncr();
 3044038:	30433e40 	call	30433e4 <Ncr>
    } 
    while(1)
    {
      SD_CLK_LOW;
 304403c:	00804034 	movhi	r2,256
 3044040:	10804004 	addi	r2,r2,256
 3044044:	10000035 	stwio	zero,0(r2)
      SD_CLK_HIGH;
 3044048:	00c04034 	movhi	r3,256
 304404c:	18c04004 	addi	r3,r3,256
 3044050:	00800044 	movi	r2,1
 3044054:	18800035 	stwio	r2,0(r3)
      if((SD_TEST_DAT & 0x01) == 0)
 3044058:	00804034 	movhi	r2,256
 304405c:	10804404 	addi	r2,r2,272
 3044060:	10800037 	ldwio	r2,0(r2)
 3044064:	1080004c 	andi	r2,r2,1
 3044068:	1005003a 	cmpeq	r2,r2,zero
 304406c:	1000011e 	bne	r2,zero,3044074 <SD_read_block+0xf0>
      break;
    }
 3044070:	003ff206 	br	304403c <SD_read_block+0xb8>
    for(i=0;i<513;i++)
 3044074:	e03ffc15 	stw	zero,-16(fp)
 3044078:	00002506 	br	3044110 <SD_read_block+0x18c>
    {
      BYTE j;
      for(j=0;j<8;j++)
 304407c:	e03ffa05 	stb	zero,-24(fp)
 3044080:	00001706 	br	30440e0 <SD_read_block+0x15c>
      {
        SD_CLK_LOW;
 3044084:	00804034 	movhi	r2,256
 3044088:	10804004 	addi	r2,r2,256
 304408c:	10000035 	stwio	zero,0(r2)
        SD_CLK_HIGH;
 3044090:	00c04034 	movhi	r3,256
 3044094:	18c04004 	addi	r3,r3,256
 3044098:	00800044 	movi	r2,1
 304409c:	18800035 	stwio	r2,0(r3)
        c <<= 1; 
 30440a0:	e0bffd03 	ldbu	r2,-12(fp)
 30440a4:	1085883a 	add	r2,r2,r2
 30440a8:	e0bffd05 	stb	r2,-12(fp)
        if((SD_TEST_DAT & 0x01))
 30440ac:	00804034 	movhi	r2,256
 30440b0:	10804404 	addi	r2,r2,272
 30440b4:	10800037 	ldwio	r2,0(r2)
 30440b8:	1080004c 	andi	r2,r2,1
 30440bc:	10803fcc 	andi	r2,r2,255
 30440c0:	1005003a 	cmpeq	r2,r2,zero
 30440c4:	1000031e 	bne	r2,zero,30440d4 <SD_read_block+0x150>
        c |= 0x01;
 30440c8:	e0bffd03 	ldbu	r2,-12(fp)
 30440cc:	10800054 	ori	r2,r2,1
 30440d0:	e0bffd05 	stb	r2,-12(fp)
      break;
    }
    for(i=0;i<513;i++)
    {
      BYTE j;
      for(j=0;j<8;j++)
 30440d4:	e0bffa03 	ldbu	r2,-24(fp)
 30440d8:	10800044 	addi	r2,r2,1
 30440dc:	e0bffa05 	stb	r2,-24(fp)
 30440e0:	e0bffa03 	ldbu	r2,-24(fp)
 30440e4:	10800230 	cmpltui	r2,r2,8
 30440e8:	103fe61e 	bne	r2,zero,3044084 <SD_read_block+0x100>
        SD_CLK_HIGH;
        c <<= 1; 
        if((SD_TEST_DAT & 0x01))
        c |= 0x01;
      } 
      *buff=c;
 30440ec:	e0ffff17 	ldw	r3,-4(fp)
 30440f0:	e0bffd03 	ldbu	r2,-12(fp)
 30440f4:	18800005 	stb	r2,0(r3)
      buff++;
 30440f8:	e0bfff17 	ldw	r2,-4(fp)
 30440fc:	10800044 	addi	r2,r2,1
 3044100:	e0bfff15 	stw	r2,-4(fp)
      SD_CLK_LOW;
      SD_CLK_HIGH;
      if((SD_TEST_DAT & 0x01) == 0)
      break;
    }
    for(i=0;i<513;i++)
 3044104:	e0bffc17 	ldw	r2,-16(fp)
 3044108:	10800044 	addi	r2,r2,1
 304410c:	e0bffc15 	stw	r2,-16(fp)
 3044110:	e0bffc17 	ldw	r2,-16(fp)
 3044114:	10808070 	cmpltui	r2,r2,513
 3044118:	103fd81e 	bne	r2,zero,304407c <SD_read_block+0xf8>
        c |= 0x01;
      } 
      *buff=c;
      buff++;
    } 
    for(i=0; i<16; i++)
 304411c:	e03ffc15 	stw	zero,-16(fp)
 3044120:	00000a06 	br	304414c <SD_read_block+0x1c8>
    {
        SD_CLK_LOW;
 3044124:	00804034 	movhi	r2,256
 3044128:	10804004 	addi	r2,r2,256
 304412c:	10000035 	stwio	zero,0(r2)
        SD_CLK_HIGH;
 3044130:	00c04034 	movhi	r3,256
 3044134:	18c04004 	addi	r3,r3,256
 3044138:	00800044 	movi	r2,1
 304413c:	18800035 	stwio	r2,0(r3)
        c |= 0x01;
      } 
      *buff=c;
      buff++;
    } 
    for(i=0; i<16; i++)
 3044140:	e0bffc17 	ldw	r2,-16(fp)
 3044144:	10800044 	addi	r2,r2,1
 3044148:	e0bffc15 	stw	r2,-16(fp)
 304414c:	e0bffc17 	ldw	r2,-16(fp)
 3044150:	10800430 	cmpltui	r2,r2,16
 3044154:	103ff31e 	bne	r2,zero,3044124 <SD_read_block+0x1a0>
    {
        SD_CLK_LOW;
        SD_CLK_HIGH;
    }
    read_status = 1;  //SD data next in
 3044158:	00800044 	movi	r2,1
 304415c:	d0a66e45 	stb	r2,-26183(gp)
    return 0;
 3044160:	0005883a 	mov	r2,zero
}
 3044164:	e037883a 	mov	sp,fp
 3044168:	dfc00117 	ldw	ra,4(sp)
 304416c:	df000017 	ldw	fp,0(sp)
 3044170:	dec00204 	addi	sp,sp,8
 3044174:	f800283a 	ret

03044178 <SD_write_block>:
//---------------------------------------------------------------------

BYTE SD_write_block(UINT32 block_number, BYTE *buff)
{
 3044178:	defff504 	addi	sp,sp,-44
 304417c:	dfc00a15 	stw	ra,40(sp)
 3044180:	df000915 	stw	fp,36(sp)
 3044184:	df000904 	addi	fp,sp,36
 3044188:	e13ffd15 	stw	r4,-12(fp)
 304418c:	e17ffe15 	stw	r5,-8(fp)
    UINT16 b = 0;
 3044190:	e03ffc15 	stw	zero,-16(fp)
    UINT16 crc=0;
 3044194:	e03ffb15 	stw	zero,-20(fp)
    BYTE temp = 0;
 3044198:	e03ffa45 	stb	zero,-23(fp)
    BYTE crc_status = 0;
 304419c:	e03ffa05 	stb	zero,-24(fp)
    
    
    SD_DAT_OUT;
 30441a0:	00c04034 	movhi	r3,256
 30441a4:	18c04504 	addi	r3,r3,276
 30441a8:	00800044 	movi	r2,1
 30441ac:	18800035 	stwio	r2,0(r3)
    
    UINT32 i,k,lba;
    lba = block_number * 512;
 30441b0:	e0bffd17 	ldw	r2,-12(fp)
 30441b4:	1004927a 	slli	r2,r2,9
 30441b8:	e0bff715 	stw	r2,-36(fp)

    Ncc();
 30441bc:	30434440 	call	3043444 <Ncc>
    cmd_buffer[0] = cmd24[0];
 30441c0:	d0a00a03 	ldbu	r2,-32728(gp)
 30441c4:	d0a66d05 	stb	r2,-26188(gp)
    cmd_buffer[1] = (lba>>24)&0xff;
 30441c8:	e0bff717 	ldw	r2,-36(fp)
 30441cc:	1004d63a 	srli	r2,r2,24
 30441d0:	1007883a 	mov	r3,r2
 30441d4:	0080c174 	movhi	r2,773
 30441d8:	10b9c244 	addi	r2,r2,-6391
 30441dc:	10c00005 	stb	r3,0(r2)
    cmd_buffer[2] = (lba>>16)&0xff;
 30441e0:	e0bff717 	ldw	r2,-36(fp)
 30441e4:	1004d43a 	srli	r2,r2,16
 30441e8:	1007883a 	mov	r3,r2
 30441ec:	0080c174 	movhi	r2,773
 30441f0:	10b9c284 	addi	r2,r2,-6390
 30441f4:	10c00005 	stb	r3,0(r2)
    cmd_buffer[3] = (lba>>8)&0xff;
 30441f8:	e0bff717 	ldw	r2,-36(fp)
 30441fc:	1004d23a 	srli	r2,r2,8
 3044200:	1007883a 	mov	r3,r2
 3044204:	0080c174 	movhi	r2,773
 3044208:	10b9c2c4 	addi	r2,r2,-6389
 304420c:	10c00005 	stb	r3,0(r2)
    cmd_buffer[4] = lba&0xff;
 3044210:	e0bff717 	ldw	r2,-36(fp)
 3044214:	1007883a 	mov	r3,r2
 3044218:	0080c174 	movhi	r2,773
 304421c:	10b9c304 	addi	r2,r2,-6388
 3044220:	10c00005 	stb	r3,0(r2)
    send_cmd(cmd_buffer); 
 3044224:	d1266d04 	addi	r4,gp,-26188
 3044228:	3043db80 	call	3043db8 <send_cmd>
    Ncr();
 304422c:	30433e40 	call	30433e4 <Ncr>

    if(response_R(1)>1)
 3044230:	01000044 	movi	r4,1
 3044234:	3043b3c0 	call	3043b3c <response_R>
 3044238:	10803fcc 	andi	r2,r2,255
 304423c:	108000b0 	cmpltui	r2,r2,2
 3044240:	1000031e 	bne	r2,zero,3044250 <SD_write_block+0xd8>
    return 1;
 3044244:	00800044 	movi	r2,1
 3044248:	e0bfff15 	stw	r2,-4(fp)
 304424c:	0000b406 	br	3044520 <SD_write_block+0x3a8>
    Ncc();
 3044250:	30434440 	call	3043444 <Ncc>
    
    
    SD_CLK_LOW;
 3044254:	00804034 	movhi	r2,256
 3044258:	10804004 	addi	r2,r2,256
 304425c:	10000035 	stwio	zero,0(r2)
    SD_DAT_LOW;
 3044260:	00804034 	movhi	r2,256
 3044264:	10804404 	addi	r2,r2,272
 3044268:	10000035 	stwio	zero,0(r2)
    SD_CLK_HIGH;
 304426c:	00c04034 	movhi	r3,256
 3044270:	18c04004 	addi	r3,r3,256
 3044274:	00800044 	movi	r2,1
 3044278:	18800035 	stwio	r2,0(r3)

    
    for(i=0; i < 512; i++) 
 304427c:	e03ff915 	stw	zero,-28(fp)
 3044280:	00003906 	br	3044368 <SD_write_block+0x1f0>
    {
        temp = buff [ i ];
 3044284:	e0fff917 	ldw	r3,-28(fp)
 3044288:	e0bffe17 	ldw	r2,-8(fp)
 304428c:	1885883a 	add	r2,r3,r2
 3044290:	10800003 	ldbu	r2,0(r2)
 3044294:	e0bffa45 	stb	r2,-23(fp)
        
        for(k=0x80; k!=0; k=k>>1) 
 3044298:	00802004 	movi	r2,128
 304429c:	e0bff815 	stw	r2,-32(fp)
 30442a0:	00002b06 	br	3044350 <SD_write_block+0x1d8>
        {
          SD_CLK_LOW;   
 30442a4:	00804034 	movhi	r2,256
 30442a8:	10804004 	addi	r2,r2,256
 30442ac:	10000035 	stwio	zero,0(r2)

          if(temp&k)     
 30442b0:	e0fffa43 	ldbu	r3,-23(fp)
 30442b4:	e0bff817 	ldw	r2,-32(fp)
 30442b8:	1884703a 	and	r2,r3,r2
 30442bc:	1005003a 	cmpeq	r2,r2,zero
 30442c0:	1000051e 	bne	r2,zero,30442d8 <SD_write_block+0x160>
          SD_DAT_HIGH; 
 30442c4:	00c04034 	movhi	r3,256
 30442c8:	18c04404 	addi	r3,r3,272
 30442cc:	00800044 	movi	r2,1
 30442d0:	18800035 	stwio	r2,0(r3)
 30442d4:	00000306 	br	30442e4 <SD_write_block+0x16c>
          else 
          SD_DAT_LOW; 
 30442d8:	00804034 	movhi	r2,256
 30442dc:	10804404 	addi	r2,r2,272
 30442e0:	10000035 	stwio	zero,0(r2)

          SD_CLK_HIGH;   
 30442e4:	00c04034 	movhi	r3,256
 30442e8:	18c04004 	addi	r3,r3,256
 30442ec:	00800044 	movi	r2,1
 30442f0:	18800035 	stwio	r2,0(r3)
          
          b = b*2;
 30442f4:	e0bffc17 	ldw	r2,-16(fp)
 30442f8:	1085883a 	add	r2,r2,r2
 30442fc:	e0bffc15 	stw	r2,-16(fp)
          if((b&0x10000))
 3044300:	e0bffc17 	ldw	r2,-16(fp)
 3044304:	1080006c 	andhi	r2,r2,1
 3044308:	1005003a 	cmpeq	r2,r2,zero
 304430c:	1000051e 	bne	r2,zero,3044324 <SD_write_block+0x1ac>
          b = b^0x11021;
 3044310:	e0bffc17 	ldw	r2,-16(fp)
 3044314:	00c00074 	movhi	r3,1
 3044318:	18c40844 	addi	r3,r3,4129
 304431c:	10c4f03a 	xor	r2,r2,r3
 3044320:	e0bffc15 	stw	r2,-16(fp)
          if((temp&k))
 3044324:	e0fffa43 	ldbu	r3,-23(fp)
 3044328:	e0bff817 	ldw	r2,-32(fp)
 304432c:	1884703a 	and	r2,r3,r2
 3044330:	1005003a 	cmpeq	r2,r2,zero
 3044334:	1000031e 	bne	r2,zero,3044344 <SD_write_block+0x1cc>
          b = b^(0x10000^0x11021);
 3044338:	e0bffc17 	ldw	r2,-16(fp)
 304433c:	1084085c 	xori	r2,r2,4129
 3044340:	e0bffc15 	stw	r2,-16(fp)
    
    for(i=0; i < 512; i++) 
    {
        temp = buff [ i ];
        
        for(k=0x80; k!=0; k=k>>1) 
 3044344:	e0bff817 	ldw	r2,-32(fp)
 3044348:	1004d07a 	srli	r2,r2,1
 304434c:	e0bff815 	stw	r2,-32(fp)
 3044350:	e0bff817 	ldw	r2,-32(fp)
 3044354:	1004c03a 	cmpne	r2,r2,zero
 3044358:	103fd21e 	bne	r2,zero,30442a4 <SD_write_block+0x12c>
    SD_CLK_LOW;
    SD_DAT_LOW;
    SD_CLK_HIGH;

    
    for(i=0; i < 512; i++) 
 304435c:	e0bff917 	ldw	r2,-28(fp)
 3044360:	10800044 	addi	r2,r2,1
 3044364:	e0bff915 	stw	r2,-28(fp)
 3044368:	e0bff917 	ldw	r2,-28(fp)
 304436c:	10808030 	cmpltui	r2,r2,512
 3044370:	103fc41e 	bne	r2,zero,3044284 <SD_write_block+0x10c>
          b = b^0x11021;
          if((temp&k))
          b = b^(0x10000^0x11021);
        } 
    } 
    crc = b;  
 3044374:	e0bffc17 	ldw	r2,-16(fp)
 3044378:	e0bffb15 	stw	r2,-20(fp)
//    crc =((crc<<1)|0x01);        //////////////end bit  
    
    
    for(i=0; i<16; i++) 
 304437c:	e03ff915 	stw	zero,-28(fp)
 3044380:	00001906 	br	30443e8 <SD_write_block+0x270>
    {
      SD_CLK_LOW;
 3044384:	00804034 	movhi	r2,256
 3044388:	10804004 	addi	r2,r2,256
 304438c:	10000035 	stwio	zero,0(r2)
      
      if(crc&0x8000)
 3044390:	e0bffb17 	ldw	r2,-20(fp)
 3044394:	10a0000c 	andi	r2,r2,32768
 3044398:	1005003a 	cmpeq	r2,r2,zero
 304439c:	1000051e 	bne	r2,zero,30443b4 <SD_write_block+0x23c>
      SD_DAT_HIGH;
 30443a0:	00c04034 	movhi	r3,256
 30443a4:	18c04404 	addi	r3,r3,272
 30443a8:	00800044 	movi	r2,1
 30443ac:	18800035 	stwio	r2,0(r3)
 30443b0:	00000306 	br	30443c0 <SD_write_block+0x248>
      else
      SD_DAT_LOW; 
 30443b4:	00804034 	movhi	r2,256
 30443b8:	10804404 	addi	r2,r2,272
 30443bc:	10000035 	stwio	zero,0(r2)
      SD_CLK_HIGH;
 30443c0:	00c04034 	movhi	r3,256
 30443c4:	18c04004 	addi	r3,r3,256
 30443c8:	00800044 	movi	r2,1
 30443cc:	18800035 	stwio	r2,0(r3)
      crc<<=1;
 30443d0:	e0bffb17 	ldw	r2,-20(fp)
 30443d4:	1085883a 	add	r2,r2,r2
 30443d8:	e0bffb15 	stw	r2,-20(fp)
    } 
    crc = b;  
//    crc =((crc<<1)|0x01);        //////////////end bit  
    
    
    for(i=0; i<16; i++) 
 30443dc:	e0bff917 	ldw	r2,-28(fp)
 30443e0:	10800044 	addi	r2,r2,1
 30443e4:	e0bff915 	stw	r2,-28(fp)
 30443e8:	e0bff917 	ldw	r2,-28(fp)
 30443ec:	10800430 	cmpltui	r2,r2,16
 30443f0:	103fe41e 	bne	r2,zero,3044384 <SD_write_block+0x20c>
      SD_CLK_HIGH;
      crc<<=1;
    }


    SD_CLK_LOW;
 30443f4:	00804034 	movhi	r2,256
 30443f8:	10804004 	addi	r2,r2,256
 30443fc:	10000035 	stwio	zero,0(r2)
    SD_DAT_HIGH;
 3044400:	00c04034 	movhi	r3,256
 3044404:	18c04404 	addi	r3,r3,272
 3044408:	00800044 	movi	r2,1
 304440c:	18800035 	stwio	r2,0(r3)
    SD_CLK_HIGH;
 3044410:	00c04034 	movhi	r3,256
 3044414:	18c04004 	addi	r3,r3,256
 3044418:	00800044 	movi	r2,1
 304441c:	18800035 	stwio	r2,0(r3)
     

    Ncc();
 3044420:	30434440 	call	3043444 <Ncc>

    SD_DAT_IN;       
 3044424:	00804034 	movhi	r2,256
 3044428:	10804504 	addi	r2,r2,276
 304442c:	10000035 	stwio	zero,0(r2)
    while(1)            
    {
      SD_CLK_LOW;
 3044430:	00804034 	movhi	r2,256
 3044434:	10804004 	addi	r2,r2,256
 3044438:	10000035 	stwio	zero,0(r2)
      SD_CLK_HIGH;
 304443c:	00c04034 	movhi	r3,256
 3044440:	18c04004 	addi	r3,r3,256
 3044444:	00800044 	movi	r2,1
 3044448:	18800035 	stwio	r2,0(r3)
      if((SD_TEST_DAT & 0x01) == 0)
 304444c:	00804034 	movhi	r2,256
 3044450:	10804404 	addi	r2,r2,272
 3044454:	10800037 	ldwio	r2,0(r2)
 3044458:	1080004c 	andi	r2,r2,1
 304445c:	1005003a 	cmpeq	r2,r2,zero
 3044460:	1000011e 	bne	r2,zero,3044468 <SD_write_block+0x2f0>
      break;
    }
 3044464:	003ff206 	br	3044430 <SD_write_block+0x2b8>
    
    for(i=0;i<8;i++)
 3044468:	e03ff915 	stw	zero,-28(fp)
 304446c:	00001706 	br	30444cc <SD_write_block+0x354>
    {
        SD_CLK_LOW;
 3044470:	00804034 	movhi	r2,256
 3044474:	10804004 	addi	r2,r2,256
 3044478:	10000035 	stwio	zero,0(r2)
        SD_CLK_HIGH;
 304447c:	00c04034 	movhi	r3,256
 3044480:	18c04004 	addi	r3,r3,256
 3044484:	00800044 	movi	r2,1
 3044488:	18800035 	stwio	r2,0(r3)
        
        crc_status <<= 1;
 304448c:	e0bffa03 	ldbu	r2,-24(fp)
 3044490:	1085883a 	add	r2,r2,r2
 3044494:	e0bffa05 	stb	r2,-24(fp)

        if((SD_TEST_DAT & 0x01))
 3044498:	00804034 	movhi	r2,256
 304449c:	10804404 	addi	r2,r2,272
 30444a0:	10800037 	ldwio	r2,0(r2)
 30444a4:	1080004c 	andi	r2,r2,1
 30444a8:	10803fcc 	andi	r2,r2,255
 30444ac:	1005003a 	cmpeq	r2,r2,zero
 30444b0:	1000031e 	bne	r2,zero,30444c0 <SD_write_block+0x348>
        crc_status |= 0x01;        
 30444b4:	e0bffa03 	ldbu	r2,-24(fp)
 30444b8:	10800054 	ori	r2,r2,1
 30444bc:	e0bffa05 	stb	r2,-24(fp)
      SD_CLK_HIGH;
      if((SD_TEST_DAT & 0x01) == 0)
      break;
    }
    
    for(i=0;i<8;i++)
 30444c0:	e0bff917 	ldw	r2,-28(fp)
 30444c4:	10800044 	addi	r2,r2,1
 30444c8:	e0bff915 	stw	r2,-28(fp)
 30444cc:	e0bff917 	ldw	r2,-28(fp)
 30444d0:	10800230 	cmpltui	r2,r2,8
 30444d4:	103fe61e 	bne	r2,zero,3044470 <SD_write_block+0x2f8>
        if((SD_TEST_DAT & 0x01))
        crc_status |= 0x01;        
    }

    
    for(i=0;i<16;i++)
 30444d8:	e03ff915 	stw	zero,-28(fp)
 30444dc:	00000a06 	br	3044508 <SD_write_block+0x390>
    {
        SD_CLK_LOW;
 30444e0:	00804034 	movhi	r2,256
 30444e4:	10804004 	addi	r2,r2,256
 30444e8:	10000035 	stwio	zero,0(r2)
        SD_CLK_HIGH;
 30444ec:	00c04034 	movhi	r3,256
 30444f0:	18c04004 	addi	r3,r3,256
 30444f4:	00800044 	movi	r2,1
 30444f8:	18800035 	stwio	r2,0(r3)
        if((SD_TEST_DAT & 0x01))
        crc_status |= 0x01;        
    }

    
    for(i=0;i<16;i++)
 30444fc:	e0bff917 	ldw	r2,-28(fp)
 3044500:	10800044 	addi	r2,r2,1
 3044504:	e0bff915 	stw	r2,-28(fp)
 3044508:	e0bff917 	ldw	r2,-28(fp)
 304450c:	10800430 	cmpltui	r2,r2,16
 3044510:	103ff31e 	bne	r2,zero,30444e0 <SD_write_block+0x368>
    {
        SD_CLK_LOW;
        SD_CLK_HIGH;
    }
    write_status = 1;     
 3044514:	00800044 	movi	r2,1
 3044518:	d0a66e85 	stb	r2,-26182(gp)
    return 0;     
 304451c:	e03fff15 	stw	zero,-4(fp)
 3044520:	e0bfff17 	ldw	r2,-4(fp)
}
 3044524:	e037883a 	mov	sp,fp
 3044528:	dfc00117 	ldw	ra,4(sp)
 304452c:	df000017 	ldw	fp,0(sp)
 3044530:	dec00204 	addi	sp,sp,8
 3044534:	f800283a 	ret

03044538 <show_name>:
#define lcd_read_cmd(base)                            IORD(base, 1)
#define lcd_write_data(base, data)                    IOWR(base, 2, data)
#define lcd_read_data(base)                           IORD(base, 3) 
//-------------------------------------------------------------------------
void show_name(char *name)
{
 3044538:	defff904 	addi	sp,sp,-28
 304453c:	dfc00615 	stw	ra,24(sp)
 3044540:	df000515 	stw	fp,20(sp)
 3044544:	df000504 	addi	fp,sp,20
 3044548:	e13fff15 	stw	r4,-4(fp)
  UINT16 i,j,length_temp,length_n;
  
  LCD_Init(); 
 304454c:	30402000 	call	3040200 <LCD_Init>
  length_temp=strlen(name);
 3044550:	e13fff17 	ldw	r4,-4(fp)
 3044554:	3044b640 	call	3044b64 <strlen>
 3044558:	e0bffc15 	stw	r2,-16(fp)
  if(length_temp<=32)
 304455c:	e0bffc17 	ldw	r2,-16(fp)
 3044560:	10800868 	cmpgeui	r2,r2,33
 3044564:	1000031e 	bne	r2,zero,3044574 <show_name+0x3c>
  {
      length_n=1;
 3044568:	00800044 	movi	r2,1
 304456c:	e0bffb15 	stw	r2,-20(fp)
 3044570:	00000506 	br	3044588 <show_name+0x50>
  }
  else
        length_n=(length_temp-32)/16+1;
 3044574:	e0bffc17 	ldw	r2,-16(fp)
 3044578:	10bff804 	addi	r2,r2,-32
 304457c:	1004d13a 	srli	r2,r2,4
 3044580:	10800044 	addi	r2,r2,1
 3044584:	e0bffb15 	stw	r2,-20(fp)
  for(i=0;i<length_n;i++)
 3044588:	e03ffe15 	stw	zero,-8(fp)
 304458c:	00004a06 	br	30446b8 <show_name+0x180>
  {
         lcd_write_cmd(LCD_BASE,0x80);
 3044590:	00c04034 	movhi	r3,256
 3044594:	18c03804 	addi	r3,r3,224
 3044598:	00802004 	movi	r2,128
 304459c:	18800035 	stwio	r2,0(r3)
         usleep(100);
 30445a0:	01001904 	movi	r4,100
 30445a4:	3044d780 	call	3044d78 <usleep>
         for(j=0;j<16;j++)
 30445a8:	e03ffd15 	stw	zero,-12(fp)
 30445ac:	00001306 	br	30445fc <show_name+0xc4>
         {
          lcd_write_data(LCD_BASE,name[j+i*16]);
 30445b0:	e0bffe17 	ldw	r2,-8(fp)
 30445b4:	1006913a 	slli	r3,r2,4
 30445b8:	e0bffd17 	ldw	r2,-12(fp)
 30445bc:	1885883a 	add	r2,r3,r2
 30445c0:	1007883a 	mov	r3,r2
 30445c4:	e0bfff17 	ldw	r2,-4(fp)
 30445c8:	1885883a 	add	r2,r3,r2
 30445cc:	10800003 	ldbu	r2,0(r2)
 30445d0:	10c03fcc 	andi	r3,r2,255
 30445d4:	18c0201c 	xori	r3,r3,128
 30445d8:	18ffe004 	addi	r3,r3,-128
 30445dc:	00804034 	movhi	r2,256
 30445e0:	10803a04 	addi	r2,r2,232
 30445e4:	10c00035 	stwio	r3,0(r2)
          usleep(100);
 30445e8:	01001904 	movi	r4,100
 30445ec:	3044d780 	call	3044d78 <usleep>
        length_n=(length_temp-32)/16+1;
  for(i=0;i<length_n;i++)
  {
         lcd_write_cmd(LCD_BASE,0x80);
         usleep(100);
         for(j=0;j<16;j++)
 30445f0:	e0bffd17 	ldw	r2,-12(fp)
 30445f4:	10800044 	addi	r2,r2,1
 30445f8:	e0bffd15 	stw	r2,-12(fp)
 30445fc:	e0bffd17 	ldw	r2,-12(fp)
 3044600:	10800430 	cmpltui	r2,r2,16
 3044604:	103fea1e 	bne	r2,zero,30445b0 <show_name+0x78>
         {
          lcd_write_data(LCD_BASE,name[j+i*16]);
          usleep(100);
         }           
         lcd_write_cmd(LCD_BASE,0xC0);
 3044608:	00c04034 	movhi	r3,256
 304460c:	18c03804 	addi	r3,r3,224
 3044610:	00803004 	movi	r2,192
 3044614:	18800035 	stwio	r2,0(r3)
         usleep(100);
 3044618:	01001904 	movi	r4,100
 304461c:	3044d780 	call	3044d78 <usleep>
         for(j=0;j<16;j++)
 3044620:	e03ffd15 	stw	zero,-12(fp)
 3044624:	00001406 	br	3044678 <show_name+0x140>
         {
          lcd_write_data(LCD_BASE,name[j+i*16+16]);
 3044628:	e0bffe17 	ldw	r2,-8(fp)
 304462c:	1006913a 	slli	r3,r2,4
 3044630:	e0bffd17 	ldw	r2,-12(fp)
 3044634:	1885883a 	add	r2,r3,r2
 3044638:	1007883a 	mov	r3,r2
 304463c:	e0bfff17 	ldw	r2,-4(fp)
 3044640:	1885883a 	add	r2,r3,r2
 3044644:	10800404 	addi	r2,r2,16
 3044648:	10800003 	ldbu	r2,0(r2)
 304464c:	10c03fcc 	andi	r3,r2,255
 3044650:	18c0201c 	xori	r3,r3,128
 3044654:	18ffe004 	addi	r3,r3,-128
 3044658:	00804034 	movhi	r2,256
 304465c:	10803a04 	addi	r2,r2,232
 3044660:	10c00035 	stwio	r3,0(r2)
          usleep(100);
 3044664:	01001904 	movi	r4,100
 3044668:	3044d780 	call	3044d78 <usleep>
          lcd_write_data(LCD_BASE,name[j+i*16]);
          usleep(100);
         }           
         lcd_write_cmd(LCD_BASE,0xC0);
         usleep(100);
         for(j=0;j<16;j++)
 304466c:	e0bffd17 	ldw	r2,-12(fp)
 3044670:	10800044 	addi	r2,r2,1
 3044674:	e0bffd15 	stw	r2,-12(fp)
 3044678:	e0bffd17 	ldw	r2,-12(fp)
 304467c:	10800430 	cmpltui	r2,r2,16
 3044680:	103fe91e 	bne	r2,zero,3044628 <show_name+0xf0>
         {
          lcd_write_data(LCD_BASE,name[j+i*16+16]);
          usleep(100);
         }  
         if(length_n>1)
 3044684:	e0bffb17 	ldw	r2,-20(fp)
 3044688:	108000b0 	cmpltui	r2,r2,2
 304468c:	1000041e 	bne	r2,zero,30446a0 <show_name+0x168>
         usleep(1000000);  
 3044690:	010003f4 	movhi	r4,15
 3044694:	21109004 	addi	r4,r4,16960
 3044698:	3044d780 	call	3044d78 <usleep>
 304469c:	00000306 	br	30446ac <show_name+0x174>
         else
         usleep(300000);     
 30446a0:	01000174 	movhi	r4,5
 30446a4:	2124f804 	addi	r4,r4,-27680
 30446a8:	3044d780 	call	3044d78 <usleep>
  {
      length_n=1;
  }
  else
        length_n=(length_temp-32)/16+1;
  for(i=0;i<length_n;i++)
 30446ac:	e0bffe17 	ldw	r2,-8(fp)
 30446b0:	10800044 	addi	r2,r2,1
 30446b4:	e0bffe15 	stw	r2,-8(fp)
 30446b8:	e0fffe17 	ldw	r3,-8(fp)
 30446bc:	e0bffb17 	ldw	r2,-20(fp)
 30446c0:	18bfb336 	bltu	r3,r2,3044590 <show_name+0x58>
         if(length_n>1)
         usleep(1000000);  
         else
         usleep(300000);     
  }  
}
 30446c4:	e037883a 	mov	sp,fp
 30446c8:	dfc00117 	ldw	ra,4(sp)
 30446cc:	df000017 	ldw	fp,0(sp)
 30446d0:	dec00204 	addi	sp,sp,8
 30446d4:	f800283a 	ret

030446d8 <time>:

#include "system.h"
#include "head.h"
void time(int j,int n,int num)
{
 30446d8:	defff004 	addi	sp,sp,-64
 30446dc:	dfc00f15 	stw	ra,60(sp)
 30446e0:	df000e15 	stw	fp,56(sp)
 30446e4:	df000e04 	addi	fp,sp,56
 30446e8:	e13ffd15 	stw	r4,-12(fp)
 30446ec:	e17ffe15 	stw	r5,-8(fp)
 30446f0:	e1bfff15 	stw	r6,-4(fp)
   int tim[2],h[2],m[2],s[2],b[2];
   unsigned int display; 
   j=j/375; 
 30446f4:	e13ffd17 	ldw	r4,-12(fp)
 30446f8:	01405dc4 	movi	r5,375
 30446fc:	30448a00 	call	30448a0 <__divsi3>
 3044700:	e0bffd15 	stw	r2,-12(fp)
   tim[0]=j/60;   //min
 3044704:	e13ffd17 	ldw	r4,-12(fp)
 3044708:	01400f04 	movi	r5,60
 304470c:	30448a00 	call	30448a0 <__divsi3>
 3044710:	e0bff315 	stw	r2,-52(fp)
   tim[1]=j%60;  //s
 3044714:	e13ffd17 	ldw	r4,-12(fp)
 3044718:	01400f04 	movi	r5,60
 304471c:	30449000 	call	3044900 <__modsi3>
 3044720:	e0bff415 	stw	r2,-48(fp)
   
   m[1]=tim[0]%10;
 3044724:	e13ff317 	ldw	r4,-52(fp)
 3044728:	01400284 	movi	r5,10
 304472c:	30449000 	call	3044900 <__modsi3>
 3044730:	e0bff815 	stw	r2,-32(fp)
   m[0]=tim[0]/10;
 3044734:	e13ff317 	ldw	r4,-52(fp)
 3044738:	01400284 	movi	r5,10
 304473c:	30448a00 	call	30448a0 <__divsi3>
 3044740:	e0bff715 	stw	r2,-36(fp)
   s[1]=tim[1]%10;
 3044744:	e13ff417 	ldw	r4,-48(fp)
 3044748:	01400284 	movi	r5,10
 304474c:	30449000 	call	3044900 <__modsi3>
 3044750:	e0bffa15 	stw	r2,-24(fp)
   s[0]=tim[1]/10;
 3044754:	e13ff417 	ldw	r4,-48(fp)
 3044758:	01400284 	movi	r5,10
 304475c:	30448a00 	call	30448a0 <__divsi3>
 3044760:	e0bff915 	stw	r2,-28(fp)
   b[1]=n%10;
 3044764:	e13ffe17 	ldw	r4,-8(fp)
 3044768:	01400284 	movi	r5,10
 304476c:	30449000 	call	3044900 <__modsi3>
 3044770:	e0bffc15 	stw	r2,-16(fp)
   b[0]=n/10;
 3044774:	e13ffe17 	ldw	r4,-8(fp)
 3044778:	01400284 	movi	r5,10
 304477c:	30448a00 	call	30448a0 <__divsi3>
 3044780:	e0bffb15 	stw	r2,-20(fp)
   h[1]=num%10;
 3044784:	e13fff17 	ldw	r4,-4(fp)
 3044788:	01400284 	movi	r5,10
 304478c:	30449000 	call	3044900 <__modsi3>
 3044790:	e0bff615 	stw	r2,-40(fp)
   h[0]=num/10;
 3044794:	e13fff17 	ldw	r4,-4(fp)
 3044798:	01400284 	movi	r5,10
 304479c:	30448a00 	call	30448a0 <__divsi3>
 30447a0:	e0bff515 	stw	r2,-44(fp)

   
   display=b[0]*16*16*16*16*16*16*16+b[1]*16*16*16*16*16*16
 30447a4:	e0bffb17 	ldw	r2,-20(fp)
 30447a8:	1006913a 	slli	r3,r2,4
 30447ac:	e0bffc17 	ldw	r2,-16(fp)
 30447b0:	1885883a 	add	r2,r3,r2
 30447b4:	1006913a 	slli	r3,r2,4
 30447b8:	e0bff517 	ldw	r2,-44(fp)
 30447bc:	1885883a 	add	r2,r3,r2
 30447c0:	1006913a 	slli	r3,r2,4
 30447c4:	e0bff617 	ldw	r2,-40(fp)
 30447c8:	1885883a 	add	r2,r3,r2
 30447cc:	1006913a 	slli	r3,r2,4
 30447d0:	e0bff717 	ldw	r2,-36(fp)
 30447d4:	1885883a 	add	r2,r3,r2
 30447d8:	1006913a 	slli	r3,r2,4
 30447dc:	e0bff817 	ldw	r2,-32(fp)
 30447e0:	1885883a 	add	r2,r3,r2
 30447e4:	1006913a 	slli	r3,r2,4
 30447e8:	e0bff917 	ldw	r2,-28(fp)
 30447ec:	1885883a 	add	r2,r3,r2
 30447f0:	1006913a 	slli	r3,r2,4
 30447f4:	e0bffa17 	ldw	r2,-24(fp)
 30447f8:	1885883a 	add	r2,r3,r2
 30447fc:	e0bff215 	stw	r2,-56(fp)
           +h[0]*16*16*16*16*16+h[1]*16*16*16*16+m[0]*16*16*16+m[1]*16*16+s[0]*16+s[1];

   IOWR(SEG7_BASE,0,display);
 3044800:	e0fff217 	ldw	r3,-56(fp)
 3044804:	00804034 	movhi	r2,256
 3044808:	10801004 	addi	r2,r2,64
 304480c:	10c00035 	stwio	r3,0(r2)

}
 3044810:	e037883a 	mov	sp,fp
 3044814:	dfc00117 	ldw	ra,4(sp)
 3044818:	df000017 	ldw	fp,0(sp)
 304481c:	dec00204 	addi	sp,sp,8
 3044820:	f800283a 	ret

03044824 <udivmodsi4>:
 3044824:	29001b2e 	bgeu	r5,r4,3044894 <udivmodsi4+0x70>
 3044828:	28001a16 	blt	r5,zero,3044894 <udivmodsi4+0x70>
 304482c:	00800044 	movi	r2,1
 3044830:	0007883a 	mov	r3,zero
 3044834:	01c007c4 	movi	r7,31
 3044838:	00000306 	br	3044848 <udivmodsi4+0x24>
 304483c:	19c01326 	beq	r3,r7,304488c <udivmodsi4+0x68>
 3044840:	18c00044 	addi	r3,r3,1
 3044844:	28000416 	blt	r5,zero,3044858 <udivmodsi4+0x34>
 3044848:	294b883a 	add	r5,r5,r5
 304484c:	1085883a 	add	r2,r2,r2
 3044850:	293ffa36 	bltu	r5,r4,304483c <udivmodsi4+0x18>
 3044854:	10000d26 	beq	r2,zero,304488c <udivmodsi4+0x68>
 3044858:	0007883a 	mov	r3,zero
 304485c:	21400236 	bltu	r4,r5,3044868 <udivmodsi4+0x44>
 3044860:	2149c83a 	sub	r4,r4,r5
 3044864:	1886b03a 	or	r3,r3,r2
 3044868:	1004d07a 	srli	r2,r2,1
 304486c:	280ad07a 	srli	r5,r5,1
 3044870:	103ffa1e 	bne	r2,zero,304485c <udivmodsi4+0x38>
 3044874:	30000226 	beq	r6,zero,3044880 <udivmodsi4+0x5c>
 3044878:	2005883a 	mov	r2,r4
 304487c:	f800283a 	ret
 3044880:	1809883a 	mov	r4,r3
 3044884:	2005883a 	mov	r2,r4
 3044888:	f800283a 	ret
 304488c:	0007883a 	mov	r3,zero
 3044890:	003ff806 	br	3044874 <udivmodsi4+0x50>
 3044894:	00800044 	movi	r2,1
 3044898:	0007883a 	mov	r3,zero
 304489c:	003fef06 	br	304485c <udivmodsi4+0x38>

030448a0 <__divsi3>:
 30448a0:	defffe04 	addi	sp,sp,-8
 30448a4:	dc000015 	stw	r16,0(sp)
 30448a8:	dfc00115 	stw	ra,4(sp)
 30448ac:	0021883a 	mov	r16,zero
 30448b0:	20000c16 	blt	r4,zero,30448e4 <__divsi3+0x44>
 30448b4:	000d883a 	mov	r6,zero
